
Lab1.elf:     file format elf32-littlenios2
Lab1.elf
architecture: nios2:r1, flags 0x00000112:
EXEC_P, HAS_SYMS, D_PAGED
start address 0x00800244

Program Header:
    LOAD off    0x00001000 vaddr 0x00800000 paddr 0x00800000 align 2**12
         filesz 0x00000020 memsz 0x00000020 flags r-x
    LOAD off    0x00001020 vaddr 0x00800020 paddr 0x00800020 align 2**12
         filesz 0x00010f5c memsz 0x00010f5c flags r-x
    LOAD off    0x00011f7c vaddr 0x00810f7c paddr 0x00812cb4 align 2**12
         filesz 0x00001d38 memsz 0x00001d38 flags rw-
    LOAD off    0x000149ec vaddr 0x008149ec paddr 0x008149ec align 2**12
         filesz 0x00000000 memsz 0x00000164 flags rw-

Sections:
Idx Name          Size      VMA       LMA       File off  Algn
  0 .entry        00000020  00800000  00800000  00001000  2**5
                  CONTENTS, ALLOC, LOAD, READONLY, CODE
  1 .exceptions   00000224  00800020  00800020  00001020  2**2
                  CONTENTS, ALLOC, LOAD, READONLY, CODE
  2 .text         0001071c  00800244  00800244  00001244  2**2
                  CONTENTS, ALLOC, LOAD, READONLY, CODE
  3 .rodata       0000061c  00810960  00810960  00011960  2**2
                  CONTENTS, ALLOC, LOAD, READONLY, DATA
  4 .rwdata       00001d38  00810f7c  00812cb4  00011f7c  2**2
                  CONTENTS, ALLOC, LOAD, DATA, SMALL_DATA
  5 .bss          00000164  008149ec  008149ec  000149ec  2**2
                  ALLOC, SMALL_DATA
  6 .sdram_0      00000000  00814b50  00814b50  00013cb4  2**0
                  CONTENTS
  7 .comment      00000023  00000000  00000000  00013cb4  2**0
                  CONTENTS, READONLY
  8 .debug_aranges 00000fa0  00000000  00000000  00013cd8  2**3
                  CONTENTS, READONLY, DEBUGGING
  9 .debug_info   00024c5d  00000000  00000000  00014c78  2**0
                  CONTENTS, READONLY, DEBUGGING
 10 .debug_abbrev 000097d8  00000000  00000000  000398d5  2**0
                  CONTENTS, READONLY, DEBUGGING
 11 .debug_line   0000bd32  00000000  00000000  000430ad  2**0
                  CONTENTS, READONLY, DEBUGGING
 12 .debug_frame  00002424  00000000  00000000  0004ede0  2**2
                  CONTENTS, READONLY, DEBUGGING
 13 .debug_str    00003ca2  00000000  00000000  00051204  2**0
                  CONTENTS, READONLY, DEBUGGING
 14 .debug_loc    00016df9  00000000  00000000  00054ea6  2**0
                  CONTENTS, READONLY, DEBUGGING
 15 .debug_alt_sim_info 00000060  00000000  00000000  0006bca0  2**2
                  CONTENTS, READONLY, DEBUGGING
 16 .debug_ranges 000017d8  00000000  00000000  0006bd00  2**3
                  CONTENTS, READONLY, DEBUGGING
 17 .thread_model 00000003  00000000  00000000  00070b52  2**0
                  CONTENTS, READONLY
 18 .cpu          0000000c  00000000  00000000  00070b55  2**0
                  CONTENTS, READONLY
 19 .qsys         00000001  00000000  00000000  00070b61  2**0
                  CONTENTS, READONLY
 20 .simulation_enabled 00000001  00000000  00000000  00070b62  2**0
                  CONTENTS, READONLY
 21 .sysid_hash   00000004  00000000  00000000  00070b63  2**0
                  CONTENTS, READONLY
 22 .sysid_base   00000004  00000000  00000000  00070b67  2**0
                  CONTENTS, READONLY
 23 .sysid_time   00000004  00000000  00000000  00070b6b  2**0
                  CONTENTS, READONLY
 24 .stderr_dev   0000000b  00000000  00000000  00070b6f  2**0
                  CONTENTS, READONLY
 25 .stdin_dev    0000000b  00000000  00000000  00070b7a  2**0
                  CONTENTS, READONLY
 26 .stdout_dev   0000000b  00000000  00000000  00070b85  2**0
                  CONTENTS, READONLY
 27 .sopc_system_name 00000003  00000000  00000000  00070b90  2**0
                  CONTENTS, READONLY
 28 .quartus_project_dir 00000023  00000000  00000000  00070b93  2**0
                  CONTENTS, READONLY
 29 .jdi          00004e0d  00000000  00000000  00070bb6  2**0
                  CONTENTS, READONLY
 30 .sopcinfo     0008fff9  00000000  00000000  000759c3  2**0
                  CONTENTS, READONLY
SYMBOL TABLE:
00800000 l    d  .entry	00000000 .entry
00800020 l    d  .exceptions	00000000 .exceptions
00800244 l    d  .text	00000000 .text
00810960 l    d  .rodata	00000000 .rodata
00810f7c l    d  .rwdata	00000000 .rwdata
008149ec l    d  .bss	00000000 .bss
00814b50 l    d  .sdram_0	00000000 .sdram_0
00000000 l    d  .comment	00000000 .comment
00000000 l    d  .debug_aranges	00000000 .debug_aranges
00000000 l    d  .debug_info	00000000 .debug_info
00000000 l    d  .debug_abbrev	00000000 .debug_abbrev
00000000 l    d  .debug_line	00000000 .debug_line
00000000 l    d  .debug_frame	00000000 .debug_frame
00000000 l    d  .debug_str	00000000 .debug_str
00000000 l    d  .debug_loc	00000000 .debug_loc
00000000 l    d  .debug_alt_sim_info	00000000 .debug_alt_sim_info
00000000 l    d  .debug_ranges	00000000 .debug_ranges
00000000 l    df *ABS*	00000000 ../Lab1_bsp//obj/HAL/src/crt0.o
0080028c l       .text	00000000 alt_after_alt_main
00000000 l    df *ABS*	00000000 alt_irq_handler.c
00000000 l    df *ABS*	00000000 alt_instruction_exception_entry.c
00000000 l    df *ABS*	00000000 hello_world.c
008149ec l     O .bss	00000004 background_count
008002ec l     F .text	00000060 stimulus_in_ISR
00000000 l    df *ABS*	00000000 printf.c
00000000 l    df *ABS*	00000000 vfprintf.c
008109fa l     O .rodata	00000010 zeroes.4255
0080255c l     F .text	000000bc __sbprintf
00810a0a l     O .rodata	00000010 blanks.4254
00000000 l    df *ABS*	00000000 wsetup.c
00000000 l    df *ABS*	00000000 dtoa.c
0080276c l     F .text	00000200 quorem
00000000 l    df *ABS*	00000000 fflush.c
00000000 l    df *ABS*	00000000 findfp.c
00804328 l     F .text	00000008 __fp_lock
00804330 l     F .text	00000008 __fp_unlock
00804344 l     F .text	0000019c __sinit.part.1
00000000 l    df *ABS*	00000000 mallocr.c
00000000 l    df *ABS*	00000000 fwalk.c
00000000 l    df *ABS*	00000000 impure.c
00810f7c l     O .rwdata	00000424 impure_data
00000000 l    df *ABS*	00000000 locale.c
008113c0 l     O .rwdata	00000020 lc_ctype_charset
008113a0 l     O .rwdata	00000020 lc_message_charset
008113e0 l     O .rwdata	00000038 lconv
00000000 l    df *ABS*	00000000 makebuf.c
00000000 l    df *ABS*	00000000 mallocr.c
00000000 l    df *ABS*	00000000 memchr.c
00000000 l    df *ABS*	00000000 memcpy.c
00000000 l    df *ABS*	00000000 memset.c
00000000 l    df *ABS*	00000000 mprec.c
00810a3c l     O .rodata	0000000c p05.2710
00000000 l    df *ABS*	00000000 s_fpclassify.c
00000000 l    df *ABS*	00000000 sbrkr.c
00000000 l    df *ABS*	00000000 stdio.c
00000000 l    df *ABS*	00000000 strcmp.c
00000000 l    df *ABS*	00000000 strlen.c
00000000 l    df *ABS*	00000000 vfprintf.c
00806cc8 l     F .text	000000fc __sprint_r.part.0
00810b70 l     O .rodata	00000010 blanks.4199
00810b60 l     O .rodata	00000010 zeroes.4200
008080d0 l     F .text	000000bc __sbprintf
00000000 l    df *ABS*	00000000 writer.c
00000000 l    df *ABS*	00000000 closer.c
00000000 l    df *ABS*	00000000 mallocr.c
00000000 l    df *ABS*	00000000 fclose.c
00000000 l    df *ABS*	00000000 fputwc.c
00000000 l    df *ABS*	00000000 fstatr.c
00000000 l    df *ABS*	00000000 fvwrite.c
00000000 l    df *ABS*	00000000 int_errno.c
00000000 l    df *ABS*	00000000 isattyr.c
00000000 l    df *ABS*	00000000 lseekr.c
00000000 l    df *ABS*	00000000 memmove.c
00000000 l    df *ABS*	00000000 readr.c
00000000 l    df *ABS*	00000000 mallocr.c
00000000 l    df *ABS*	00000000 wbuf.c
00000000 l    df *ABS*	00000000 wcrtomb.c
00000000 l    df *ABS*	00000000 wctomb_r.c
00000000 l    df *ABS*	00000000 libgcc2.c
00000000 l    df *ABS*	00000000 libgcc2.c
00000000 l    df *ABS*	00000000 lib2-divmod.c
0080a158 l     F .text	0000006c udivmodsi4
00000000 l    df *ABS*	00000000 adddf3.c
00000000 l    df *ABS*	00000000 divdf3.c
00000000 l    df *ABS*	00000000 eqdf2.c
00000000 l    df *ABS*	00000000 gedf2.c
00000000 l    df *ABS*	00000000 ledf2.c
00000000 l    df *ABS*	00000000 muldf3.c
00000000 l    df *ABS*	00000000 subdf3.c
00000000 l    df *ABS*	00000000 fixdfsi.c
00000000 l    df *ABS*	00000000 floatsidf.c
00000000 l    df *ABS*	00000000 floatunsidf.c
00000000 l    df *ABS*	00000000 libgcc2.c
00000000 l    df *ABS*	00000000 libgcc2.c
00000000 l    df *ABS*	00000000 alt_close.c
0080c884 l     F .text	00000050 alt_get_errno
00000000 l    df *ABS*	00000000 alt_dev.c
0080c9a4 l     F .text	0000002c alt_dev_null_write
00000000 l    df *ABS*	00000000 alt_errno.c
00000000 l    df *ABS*	00000000 alt_fstat.c
0080c9d0 l     F .text	00000050 alt_get_errno
00000000 l    df *ABS*	00000000 alt_isatty.c
0080cad0 l     F .text	00000050 alt_get_errno
00000000 l    df *ABS*	00000000 alt_load.c
0080cbc4 l     F .text	00000064 alt_load_section
00000000 l    df *ABS*	00000000 alt_lseek.c
0080cca8 l     F .text	00000050 alt_get_errno
00000000 l    df *ABS*	00000000 alt_main.c
00000000 l    df *ABS*	00000000 alt_malloc_lock.c
00000000 l    df *ABS*	00000000 alt_read.c
0080ce84 l     F .text	00000050 alt_get_errno
00000000 l    df *ABS*	00000000 alt_release_fd.c
00000000 l    df *ABS*	00000000 alt_sbrk.c
00812c9c l     O .rwdata	00000004 heap_end
00000000 l    df *ABS*	00000000 alt_write.c
0080d0e0 l     F .text	00000050 alt_get_errno
00000000 l    df *ABS*	00000000 alt_sys_init.c
0080d228 l     F .text	00000038 alt_dev_reg
008119c8 l     O .rwdata	00001060 jtag_uart_0
00812a28 l     O .rwdata	00000120 lcd_display
00812b48 l     O .rwdata	000000c4 uart
00812c0c l     O .rwdata	00000030 audio_i2c_config
00812c3c l     O .rwdata	00000030 Audio
00000000 l    df *ABS*	00000000 altera_avalon_jtag_uart_fd.c
00000000 l    df *ABS*	00000000 altera_avalon_jtag_uart_init.c
0080d560 l     F .text	00000208 altera_avalon_jtag_uart_irq
0080d768 l     F .text	000000a8 altera_avalon_jtag_uart_timeout
00000000 l    df *ABS*	00000000 altera_avalon_jtag_uart_ioctl.c
00000000 l    df *ABS*	00000000 altera_avalon_jtag_uart_read.c
00000000 l    df *ABS*	00000000 altera_avalon_jtag_uart_write.c
00000000 l    df *ABS*	00000000 altera_avalon_lcd_16207.c
00812ca0 l     O .rwdata	00000004 colstart
0080dd88 l     F .text	000000b4 lcd_write_command
0080de3c l     F .text	000000d4 lcd_write_data
0080df10 l     F .text	000000cc lcd_clear_screen
0080dfdc l     F .text	000001e8 lcd_repaint_screen
0080e1c4 l     F .text	000000c8 lcd_scroll_up
0080e28c l     F .text	000002a0 lcd_handle_escape
0080ea14 l     F .text	000000ac alt_lcd_16207_timeout
00000000 l    df *ABS*	00000000 altera_avalon_lcd_16207_fd.c
00000000 l    df *ABS*	00000000 altera_avalon_timer_sc.c
0080ec58 l     F .text	00000078 alt_avalon_timer_sc_irq
00000000 l    df *ABS*	00000000 altera_avalon_uart_fd.c
00000000 l    df *ABS*	00000000 altera_avalon_uart_init.c
0080ef00 l     F .text	0000009c altera_avalon_uart_irq
0080ef9c l     F .text	000000e0 altera_avalon_uart_rxirq
0080f07c l     F .text	00000144 altera_avalon_uart_txirq
00000000 l    df *ABS*	00000000 altera_avalon_uart_read.c
0080f214 l     F .text	00000050 alt_get_errno
00000000 l    df *ABS*	00000000 altera_avalon_uart_write.c
0080f440 l     F .text	00000050 alt_get_errno
00000000 l    df *ABS*	00000000 alt_alarm_start.c
00000000 l    df *ABS*	00000000 alt_dcache_flush_all.c
00000000 l    df *ABS*	00000000 alt_dev_llist_insert.c
0080f7c0 l     F .text	00000050 alt_get_errno
00000000 l    df *ABS*	00000000 alt_do_ctors.c
00000000 l    df *ABS*	00000000 alt_do_dtors.c
00000000 l    df *ABS*	00000000 alt_icache_flush_all.c
00000000 l    df *ABS*	00000000 alt_io_redirect.c
0080f99c l     F .text	000000c0 alt_open_fd
00000000 l    df *ABS*	00000000 alt_irq_register.c
00000000 l    df *ABS*	00000000 alt_irq_vars.c
00000000 l    df *ABS*	00000000 alt_open.c
0080fc84 l     F .text	00000050 alt_get_errno
0080fcd4 l     F .text	000000cc alt_file_locked
00000000 l    df *ABS*	00000000 alt_tick.c
00000000 l    df *ABS*	00000000 alt_usleep.c
00000000 l    df *ABS*	00000000 altera_nios2_gen2_irq.c
00000000 l    df *ABS*	00000000 alt_busy_sleep.c
00000000 l    df *ABS*	00000000 alt_find_dev.c
00000000 l    df *ABS*	00000000 alt_find_file.c
00000000 l    df *ABS*	00000000 alt_get_fd.c
00000000 l    df *ABS*	00000000 alt_icache_flush.c
00000000 l    df *ABS*	00000000 atexit.c
00000000 l    df *ABS*	00000000 ctype_.c
00810df9 l     O .rodata	00000180 _ctype_b
00000000 l    df *ABS*	00000000 exit.c
00000000 l    df *ABS*	00000000 memcmp.c
00000000 l    df *ABS*	00000000 __atexit.c
00000000 l    df *ABS*	00000000 __call_atexit.c
00000000 l    df *ABS*	00000000 alt_exit.c
00814a24 g     O .bss	00000004 alt_instruction_exception_handler
00806810 g     F .text	00000074 _mprec_log10
008068fc g     F .text	0000008c __any_on
00808afc g     F .text	00000054 _isatty_r
00810a48 g     O .rodata	00000028 __mprec_tinytens
0080cdcc g     F .text	00000078 alt_main
00814a50 g     O .bss	00000100 alt_irq
00808b50 g     F .text	0000005c _lseek_r
00812cb4 g       *ABS*	00000000 __flash_rwdata_start
0080b3ec g     F .text	00000084 .hidden __eqdf2
00814b50 g       *ABS*	00000000 __alt_heap_start
008005ac g     F .text	0000003c printf
00809420 g     F .text	0000009c _wcrtomb_r
00806b28 g     F .text	0000005c __sseek
00804678 g     F .text	00000010 __sinit
008092cc g     F .text	00000138 __swbuf_r
00804c64 g     F .text	0000007c _setlocale_r
008044e0 g     F .text	00000068 __sfmoreglue
0080ce64 g     F .text	00000020 __malloc_unlock
00808bac g     F .text	0000015c memmove
00804660 g     F .text	00000018 _cleanup
008059e8 g     F .text	000000a8 _Balloc
0080b470 g     F .text	000000e0 .hidden __gtdf2
008100c4 g     F .text	00000020 altera_nios2_gen2_irq_init
00000000  w      *UND*	00000000 __errno
00800000 g     F .entry	0000001c __reset
00800020 g       *ABS*	00000000 __flash_exceptions_start
008085e4 g     F .text	00000058 _fstat_r
00814a08 g     O .bss	00000004 errno
00806aa4 g     F .text	00000008 __seofread
00814a10 g     O .bss	00000004 alt_argv
0081ac6c g       *ABS*	00000000 _gp
00810094 g     F .text	00000030 usleep
00811848 g     O .rwdata	00000180 alt_fd_list
0081023c g     F .text	00000090 alt_find_dev
0080578c g     F .text	00000138 memcpy
00800290 g     F .text	0000005c background
00804338 g     F .text	0000000c _cleanup_r
0080c6ac g     F .text	000000d0 .hidden __floatsidf
0080fa5c g     F .text	00000078 alt_io_redirect
0080b550 g     F .text	000000e0 .hidden __ltdf2
00810960 g       *ABS*	00000000 __DTOR_END__
00810520 g     F .text	0000009c alt_exception_cause_generated_bad_addr
00806988 g     F .text	00000074 __fpclassifyd
0080676c g     F .text	000000a4 __ratio
008080ac g     F .text	00000024 __vfiprintf_internal
0080d964 g     F .text	0000020c altera_avalon_jtag_uart_read
00000000  w      *UND*	00000000 malloc
00800580 g     F .text	0000002c _printf_r
0080a274 g     F .text	00000008 .hidden __udivsi3
0080cb20 g     F .text	000000a4 isatty
00810a98 g     O .rodata	000000c8 __mprec_tens
00804ce0 g     F .text	0000000c __locale_charset
00810494 g     F .text	0000008c alt_icache_flush
00814a04 g     O .bss	00000004 __malloc_top_pad
00812c74 g     O .rwdata	00000004 __mb_cur_max
00804d10 g     F .text	0000000c _localeconv_r
0080863c g     F .text	000004c0 __sfvwrite_r
00805df4 g     F .text	0000003c __i2b
008069fc g     F .text	00000054 _sbrk_r
00808d08 g     F .text	0000005c _read_r
00812c94 g     O .rwdata	00000004 alt_max_fd
00808300 g     F .text	000000f0 _fclose_r
008042f8 g     F .text	00000030 fflush
00814a00 g     O .bss	00000004 __malloc_max_sbrked_mem
0080fad4 g     F .text	000001b0 alt_irq_register
0080a284 g     F .text	0000089c .hidden __adddf3
00806514 g     F .text	0000011c __b2d
00809bc8 g     F .text	00000590 .hidden __umoddi3
0080ccf8 g     F .text	000000d4 lseek
00812c6c g     O .rwdata	00000004 _global_impure_ptr
00808d64 g     F .text	00000568 _realloc_r
00814b50 g       *ABS*	00000000 __bss_end
0080ff90 g     F .text	00000104 alt_tick
00809608 g     F .text	000005c0 .hidden __udivdi3
00808404 g     F .text	00000184 _fputwc_r
00810a70 g     O .rodata	00000028 __mprec_bigtens
00805bd8 g     F .text	00000104 __s2b
0080c77c g     F .text	000000a4 .hidden __floatunsidf
008062bc g     F .text	00000060 __mcmp
0080ee60 g     F .text	000000a0 altera_avalon_uart_init
00804698 g     F .text	00000018 __fp_lock_all
0080fef8 g     F .text	00000098 alt_alarm_stop
00814a18 g     O .bss	00000004 alt_irq_active
008000fc g     F .exceptions	000000d4 alt_irq_handler
00811820 g     O .rwdata	00000028 alt_dev_null
0080f77c g     F .text	00000044 alt_dcache_flush_all
00805cdc g     F .text	00000068 __hi0bits
0080c624 g     F .text	00000088 .hidden __fixdfsi
00812cb4 g       *ABS*	00000000 __ram_rwdata_end
00812c8c g     O .rwdata	00000008 alt_dev_list
0080d130 g     F .text	000000f8 write
00810f7c g       *ABS*	00000000 __ram_rodata_end
0080ca20 g     F .text	000000b0 fstat
0080b550 g     F .text	000000e0 .hidden __ledf2
0080602c g     F .text	00000140 __pow5mult
00806ddc g     F .text	000012d0 ___vfiprintf_internal_r
008149f8 g     O .bss	00000004 __nlocale_changed
0080a27c g     F .text	00000008 .hidden __umodsi3
00814b50 g       *ABS*	00000000 end
0080e52c g     F .text	000004e8 altera_avalon_lcd_16207_write
0080f490 g     F .text	000001ac altera_avalon_uart_write
0080d4a8 g     F .text	000000b8 altera_avalon_jtag_uart_init
008001d0 g     F .exceptions	00000074 alt_instruction_exception_entry
00810960 g       *ABS*	00000000 __CTOR_LIST__
01000000 g       *ABS*	00000000 __alt_stack_pointer
0080ecd0 g     F .text	00000080 alt_avalon_timer_sc_init
0080edb0 g     F .text	00000060 altera_avalon_uart_write_fd
0080c820 g     F .text	00000064 .hidden __clzsi2
0080ee10 g     F .text	00000050 altera_avalon_uart_close_fd
0080db70 g     F .text	00000218 altera_avalon_jtag_uart_write
00804688 g     F .text	00000004 __sfp_lock_acquire
008056a4 g     F .text	000000e8 memchr
008005e8 g     F .text	00001f50 ___vfprintf_internal_r
008047ec g     F .text	000002f0 _free_r
00804cec g     F .text	00000010 __locale_mb_cur_max
00810798 g     F .text	00000194 __call_exitprocs
008149f4 g     O .bss	00000004 __mlocale_changed
00812c78 g     O .rwdata	00000004 __malloc_sbrk_base
00800244 g     F .text	0000004c _start
00814a1c g     O .bss	00000004 _alt_tick_rate
0080616c g     F .text	00000150 __lshift
00814a20 g     O .bss	00000004 _alt_nticks
0080ced4 g     F .text	000000fc read
0080d294 g     F .text	000000b0 alt_sys_init
00810684 g     F .text	00000114 __register_exitproc
00805e30 g     F .text	000001fc __multiply
0080d810 g     F .text	00000068 altera_avalon_jtag_uart_close
00810f7c g       *ABS*	00000000 __ram_rwdata_start
00810960 g       *ABS*	00000000 __ram_rodata_start
00814a28 g     O .bss	00000028 __malloc_current_mallinfo
00806630 g     F .text	0000013c __d2b
0080d344 g     F .text	00000060 altera_avalon_jtag_uart_read_fd
008103e0 g     F .text	000000b4 alt_get_fd
008100e4 g     F .text	00000158 alt_busy_sleep
008081e8 g     F .text	00000054 _close_r
00810608 g     F .text	0000007c memcmp
0080d404 g     F .text	00000050 altera_avalon_jtag_uart_close_fd
00814b50 g       *ABS*	00000000 __alt_stack_base
0080d454 g     F .text	00000054 altera_avalon_jtag_uart_ioctl_fd
00802618 g     F .text	00000154 __swsetup_r
0080ab20 g     F .text	000008cc .hidden __divdf3
00804548 g     F .text	00000118 __sfp
00806884 g     F .text	00000078 __copybits
00811418 g     O .rwdata	00000408 __malloc_av_
00804694 g     F .text	00000004 __sinit_lock_release
0080b630 g     F .text	00000724 .hidden __muldf3
00806a50 g     F .text	00000054 __sread
008102cc g     F .text	00000114 alt_find_file
0080f810 g     F .text	000000a4 alt_dev_llist_insert
0080ce44 g     F .text	00000020 __malloc_lock
0080d030 g     F .text	000000b0 sbrk
0080429c g     F .text	0000005c _fflush_r
0080823c g     F .text	000000c4 _calloc_r
008149ec g       *ABS*	00000000 __bss_start
008058c4 g     F .text	00000124 memset
0080034c g     F .text	00000234 main
00814a14 g     O .bss	00000004 alt_envp
008149fc g     O .bss	00000004 __malloc_max_total_mem
0080d3a4 g     F .text	00000060 altera_avalon_jtag_uart_write_fd
00809404 g     F .text	0000001c __swbuf
0080eac0 g     F .text	00000138 altera_avalon_lcd_16207_init
00806b84 g     F .text	00000008 __sclose
01000000 g       *ABS*	00000000 __alt_heap_limit
008083f0 g     F .text	00000014 fclose
0080296c g     F .text	00001728 _dtoa_r
00804efc g     F .text	000007a8 _malloc_r
0080957c g     F .text	00000030 __ascii_wctomb
00812c98 g     O .rwdata	00000004 alt_errno
00804adc g     F .text	000000c4 _fwalk
0080a1c4 g     F .text	00000054 .hidden __divsi3
008046c8 g     F .text	00000124 _malloc_trim_r
00810960 g       *ABS*	00000000 __CTOR_END__
00806b8c g     F .text	000000a4 strcmp
00810960 g       *ABS*	00000000 __flash_rodata_start
00810960 g       *ABS*	00000000 __DTOR_LIST__
0080b3ec g     F .text	00000084 .hidden __nedf2
0080d260 g     F .text	00000034 alt_irq_init
0080cfd0 g     F .text	00000060 alt_release_fd
00810b80 g     O .rodata	00000100 .hidden __clz_tab
008149f0 g     O .bss	00000004 _PathLocale
008105bc g     F .text	00000014 atexit
0080818c g     F .text	0000005c _write_r
00804d1c g     F .text	0000001c setlocale
00812c70 g     O .rwdata	00000004 _impure_ptr
00814a0c g     O .bss	00000004 alt_argc
00804094 g     F .text	00000208 __sflush_r
0080f910 g     F .text	0000005c _do_dtors
00804d08 g     F .text	00000008 __locale_cjk_lang
00800000 g       *ABS*	00000000 __alt_mem_sdram_0
00800020 g       .exceptions	00000000 alt_irq_entry
008064b4 g     F .text	00000060 __ulp
008046b0 g     F .text	00000018 __fp_unlock_all
0080ebf8 g     F .text	00000060 altera_avalon_lcd_16207_write_fd
00812c84 g     O .rwdata	00000008 alt_fs_list
00800020 g       *ABS*	00000000 __ram_exceptions_start
00804d38 g     F .text	0000000c localeconv
00812cb4 g       *ABS*	00000000 _edata
0080ed50 g     F .text	00000060 altera_avalon_uart_read_fd
00814b50 g       *ABS*	00000000 _end
00800244 g       *ABS*	00000000 __ram_exceptions_end
0080d878 g     F .text	000000ec altera_avalon_jtag_uart_ioctl
00806aac g     F .text	0000007c __swrite
00812c7c g     O .rwdata	00000004 __malloc_trim_threshold
00804cfc g     F .text	0000000c __locale_msgcharset
008105d0 g     F .text	00000038 exit
00804ba0 g     F .text	000000c4 _fwalk_reent
0080631c g     F .text	00000198 __mdiff
0080a218 g     F .text	0000005c .hidden __modsi3
00812cb0 g     O .rwdata	00000004 __ctype_ptr__
01000000 g       *ABS*	00000000 __alt_data_end
00800020 g     F .exceptions	00000000 alt_exception
0080468c g     F .text	00000004 __sfp_lock_release
00810cf8 g     O .rodata	00000101 _ctype_
0080f1c0 g     F .text	00000054 altera_avalon_uart_close
0081092c g     F .text	00000034 _exit
0080f63c g     F .text	00000140 alt_alarm_start
00804d44 g     F .text	000001b8 __smakebuf_r
00806c30 g     F .text	00000098 strlen
0080fda0 g     F .text	00000158 open
0080b470 g     F .text	000000e0 .hidden __gedf2
00812c80 g     O .rwdata	00000004 __wctomb
00806dc4 g     F .text	00000018 __sprint_r
0080f96c g     F .text	00000030 alt_icache_flush_all
00812ca4 g     O .rwdata	00000004 alt_priority_mask
00802538 g     F .text	00000024 __vfprintf_internal
0080f264 g     F .text	000001dc altera_avalon_uart_read
008095ac g     F .text	0000005c _wctomb_r
0080bd54 g     F .text	000008d0 .hidden __subdf3
00805d44 g     F .text	000000b0 __lo0bits
00812ca8 g     O .rwdata	00000008 alt_alarm_list
0080f8b4 g     F .text	0000005c _do_ctors
008094bc g     F .text	000000c0 wcrtomb
0080c8d4 g     F .text	000000d0 close
0080cc28 g     F .text	00000080 alt_load
00808588 g     F .text	0000005c fputwc
00000000  w      *UND*	00000000 free
00804690 g     F .text	00000004 __sinit_lock_acquire
00805ab8 g     F .text	00000120 __multadd
00805a90 g     F .text	00000028 _Bfree



Disassembly of section .entry:

00800000 <__reset>:
#if NIOS2_ICACHE_SIZE > 0 && defined(ALT_ALLOW_CODE_AT_RESET) && (!defined(ALT_SIM_OPTIMIZE) || defined(NIOS2_ECC_PRESENT))
    /* Assume the instruction cache size is always a power of two. */
#if NIOS2_ICACHE_SIZE > 0x8000
    movhi r2, %hi(NIOS2_ICACHE_SIZE)
#else
    movui r2, NIOS2_ICACHE_SIZE
  800000:	00840014 	movui	r2,4096
#endif

0:
    initi r2
  800004:	1001483a 	initi	r2
    addi r2, r2, -NIOS2_ICACHE_LINE_SIZE
  800008:	10bff804 	addi	r2,r2,-32
    bgt r2, zero, 0b
  80000c:	00bffd16 	blt	zero,r2,800004 <__alt_data_end+0xff800004>
 * Jump to the _start entry point in the .text section if reset code
 * is allowed or if optimizing for RTL simulation.
 */
#if defined(ALT_ALLOW_CODE_AT_RESET) || defined(ALT_SIM_OPTIMIZE)
    /* Jump to the _start entry point in the .text section. */
    movhi r1, %hi(_start)
  800010:	00402034 	movhi	at,128
    ori r1, r1, %lo(_start)
  800014:	08409114 	ori	at,at,580
    jmp r1
  800018:	0800683a 	jmp	at
  80001c:	00000000 	call	0 <__alt_mem_sdram_0-0x800000>

Disassembly of section .exceptions:

00800020 <alt_exception>:

#else /* ALT_EXCEPTION_STACK disabled */
        /* 
         * Reserve space on normal stack for registers about to be pushed.
         */
        addi  sp, sp, -76
  800020:	deffed04 	addi	sp,sp,-76
         * documentation for details).
         *
         * Leave a gap in the stack frame at 4(sp) for the muldiv handler to
         * store zero into.
         */
        stw   ra,  0(sp)
  800024:	dfc00015 	stw	ra,0(sp)
        stw   r1,   8(sp)
  800028:	d8400215 	stw	at,8(sp)
        stw   r2,  12(sp)
  80002c:	d8800315 	stw	r2,12(sp)
        stw   r3,  16(sp)
  800030:	d8c00415 	stw	r3,16(sp)
        stw   r4,  20(sp)
  800034:	d9000515 	stw	r4,20(sp)
        stw   r5,  24(sp)
  800038:	d9400615 	stw	r5,24(sp)
        stw   r6,  28(sp)
  80003c:	d9800715 	stw	r6,28(sp)
        stw   r7,  32(sp)
  800040:	d9c00815 	stw	r7,32(sp)
        rdctl r5, estatus   /* Read early to avoid usage stall */
  800044:	000b307a 	rdctl	r5,estatus
        stw   r8,  36(sp)
  800048:	da000915 	stw	r8,36(sp)
        stw   r9,  40(sp)
  80004c:	da400a15 	stw	r9,40(sp)
        stw   r10, 44(sp)
  800050:	da800b15 	stw	r10,44(sp)
        stw   r11, 48(sp)
  800054:	dac00c15 	stw	r11,48(sp)
        stw   r12, 52(sp)
  800058:	db000d15 	stw	r12,52(sp)
        stw   r13, 56(sp)
  80005c:	db400e15 	stw	r13,56(sp)
        stw   r14, 60(sp)
  800060:	db800f15 	stw	r14,60(sp)
        stw   r15, 64(sp)
  800064:	dbc01015 	stw	r15,64(sp)
        /*
         * ea-4 contains the address of the instruction being executed
         * when the exception occured. For interrupt exceptions, we will
         * will be re-issue the isntruction. Store it in 72(sp)
         */
        stw   r5,  68(sp)  /* estatus */
  800068:	d9401115 	stw	r5,68(sp)
        addi  r15, ea, -4  /* instruction that caused exception */
  80006c:	ebffff04 	addi	r15,ea,-4
        stw   r15,  72(sp)
  800070:	dbc01215 	stw	r15,72(sp)
#else
        /*
         * Test to see if the exception was a software exception or caused 
         * by an external interrupt, and vector accordingly.
         */
        rdctl r4, ipending
  800074:	0009313a 	rdctl	r4,ipending
        andi  r2, r5, 1
  800078:	2880004c 	andi	r2,r5,1
        beq   r2, zero, .Lnot_irq
  80007c:	10000326 	beq	r2,zero,80008c <alt_exception+0x6c>
        beq   r4, zero, .Lnot_irq
  800080:	20000226 	beq	r4,zero,80008c <alt_exception+0x6c>
        /*
         * Now that all necessary registers have been preserved, call 
         * alt_irq_handler() to process the interrupts.
         */

        call alt_irq_handler
  800084:	08000fc0 	call	8000fc <alt_irq_handler>

        .section .exceptions.irqreturn, "xa"

        br    .Lexception_exit
  800088:	00000706 	br	8000a8 <alt_exception+0x88>
         * upon completion, so we write ea (address of instruction *after*
         * the one where the exception occured) into 72(sp). The actual
         * instruction that caused the exception is written in r2, which these
         * handlers will utilize.
         */
        stw   ea,  72(sp)  /* Don't re-issue */
  80008c:	df401215 	stw	ea,72(sp)
        ldhu.n  r2, 0(r4)
        ldhu.n  r3, 2(r4)
        slli.n  r3, r3, 16
        or.n    r2, r2, r3 /* Instruction that caused exception */
#else
        ldw   r2, -4(ea)   /* Instruction that caused exception */
  800090:	e8bfff17 	ldw	r2,-4(ea)
         * debugger is present) or go into an infinite loop since the
         * handling behavior is undefined; in that case we will not return here.
         */

        /* Load exception-causing address as first argument (r4) */
        addi   r4, ea, -4
  800094:	e93fff04 	addi	r4,ea,-4

        /* Call the instruction-exception entry */
        call   alt_instruction_exception_entry
  800098:	08001d00 	call	8001d0 <alt_instruction_exception_entry>
         * instruction
         *
         * Return code was 0: Skip. The instruction after the exception is
         * already stored in 72(sp).
         */
        bne   r2, r0, .Lexception_exit
  80009c:	1000021e 	bne	r2,zero,8000a8 <alt_exception+0x88>

        /*
         * Otherwise, modify 72(sp) to re-issue the instruction that caused the
         * exception.
         */
        addi  r15, ea, -4  /* instruction that caused exception */
  8000a0:	ebffff04 	addi	r15,ea,-4
        stw   r15,  72(sp)
  8000a4:	dbc01215 	stw	r15,72(sp)
        /* 
         * Restore the saved registers, so that all general purpose registers 
         * have been restored to their state at the time the interrupt occured.
         */

        ldw   r5,  68(sp)
  8000a8:	d9401117 	ldw	r5,68(sp)
        ldw   ea,  72(sp)  /* This becomes the PC once eret is executed */
  8000ac:	df401217 	ldw	ea,72(sp)
        ldw   ra,   0(sp)
  8000b0:	dfc00017 	ldw	ra,0(sp)

        wrctl estatus, r5
  8000b4:	2801707a 	wrctl	estatus,r5

        ldw   r1,   8(sp)
  8000b8:	d8400217 	ldw	at,8(sp)
        ldw   r2,  12(sp)
  8000bc:	d8800317 	ldw	r2,12(sp)
        ldw   r3,  16(sp)
  8000c0:	d8c00417 	ldw	r3,16(sp)
        ldw   r4,  20(sp)
  8000c4:	d9000517 	ldw	r4,20(sp)
        ldw   r5,  24(sp)
  8000c8:	d9400617 	ldw	r5,24(sp)
        ldw   r6,  28(sp)
  8000cc:	d9800717 	ldw	r6,28(sp)
        ldw   r7,  32(sp)
  8000d0:	d9c00817 	ldw	r7,32(sp)

#if defined(ALT_EXCEPTION_STACK) && defined(ALT_STACK_CHECK)
        ldw   et, %gprel(alt_exception_old_stack_limit)(gp)
#endif

        ldw   r8,  36(sp)
  8000d4:	da000917 	ldw	r8,36(sp)
        ldw   r9,  40(sp)
  8000d8:	da400a17 	ldw	r9,40(sp)
        ldw   r10, 44(sp)
  8000dc:	da800b17 	ldw	r10,44(sp)
        ldw   r11, 48(sp)
  8000e0:	dac00c17 	ldw	r11,48(sp)
        ldw   r12, 52(sp)
  8000e4:	db000d17 	ldw	r12,52(sp)
        ldw   r13, 56(sp)
  8000e8:	db400e17 	ldw	r13,56(sp)
        ldw   r14, 60(sp)
  8000ec:	db800f17 	ldw	r14,60(sp)
        ldw   r15, 64(sp)
  8000f0:	dbc01017 	ldw	r15,64(sp)
        stw   et, %gprel(alt_stack_limit_value)(gp)
        stw   zero, %gprel(alt_exception_old_stack_limit)(gp)
#endif /* ALT_STACK_CHECK */
        ldw   sp,  76(sp)
#else /* ALT_EXCEPTION_STACK disabled */
        addi  sp, sp, 76
  8000f4:	dec01304 	addi	sp,sp,76

        /*
         * Return to the interrupted instruction.
         */

        eret
  8000f8:	ef80083a 	eret

008000fc <alt_irq_handler>:
 * instruction is present if the macro ALT_CI_INTERRUPT_VECTOR defined.
 */

void alt_irq_handler (void) __attribute__ ((section (".exceptions")));
void alt_irq_handler (void)
{
  8000fc:	defff904 	addi	sp,sp,-28
  800100:	dfc00615 	stw	ra,24(sp)
  800104:	df000515 	stw	fp,20(sp)
  800108:	df000504 	addi	fp,sp,20
  
  /*
   * Notify the operating system that we are at interrupt level.
   */ 
  
  ALT_OS_INT_ENTER();
  80010c:	0001883a 	nop
#ifndef NIOS2_EIC_PRESENT
static ALT_INLINE alt_u32 ALT_ALWAYS_INLINE alt_irq_pending (void)
{
  alt_u32 active;

  NIOS2_READ_IPENDING (active);
  800110:	0005313a 	rdctl	r2,ipending
  800114:	e0bffe15 	stw	r2,-8(fp)

  return active;
  800118:	e0bffe17 	ldw	r2,-8(fp)
   * Consider the case where the high priority interupt is asserted during
   * the interrupt entry sequence for a lower priority interrupt to see why
   * this is the case.
   */

  active = alt_irq_pending ();
  80011c:	e0bffb15 	stw	r2,-20(fp)

  do
  {
    i = 0;
  800120:	e03ffd15 	stw	zero,-12(fp)
    mask = 1;
  800124:	00800044 	movi	r2,1
  800128:	e0bffc15 	stw	r2,-16(fp)
     * called to clear the interrupt condition.
     */

    do
    {
      if (active & mask)
  80012c:	e0fffb17 	ldw	r3,-20(fp)
  800130:	e0bffc17 	ldw	r2,-16(fp)
  800134:	1884703a 	and	r2,r3,r2
  800138:	10001526 	beq	r2,zero,800190 <alt_irq_handler+0x94>
      { 
#ifdef ALT_ENHANCED_INTERRUPT_API_PRESENT
        alt_irq[i].handler(alt_irq[i].context); 
#else
        alt_irq[i].handler(alt_irq[i].context, i); 
  80013c:	00802074 	movhi	r2,129
  800140:	10929404 	addi	r2,r2,19024
  800144:	e0fffd17 	ldw	r3,-12(fp)
  800148:	180690fa 	slli	r3,r3,3
  80014c:	10c5883a 	add	r2,r2,r3
  800150:	10c00017 	ldw	r3,0(r2)
  800154:	00802074 	movhi	r2,129
  800158:	10929404 	addi	r2,r2,19024
  80015c:	e13ffd17 	ldw	r4,-12(fp)
  800160:	200890fa 	slli	r4,r4,3
  800164:	21000104 	addi	r4,r4,4
  800168:	1105883a 	add	r2,r2,r4
  80016c:	10800017 	ldw	r2,0(r2)
  800170:	1009883a 	mov	r4,r2
  800174:	e17ffd17 	ldw	r5,-12(fp)
  800178:	183ee83a 	callr	r3
#endif
        break;
  80017c:	0001883a 	nop
#ifndef NIOS2_EIC_PRESENT
static ALT_INLINE alt_u32 ALT_ALWAYS_INLINE alt_irq_pending (void)
{
  alt_u32 active;

  NIOS2_READ_IPENDING (active);
  800180:	0005313a 	rdctl	r2,ipending
  800184:	e0bfff15 	stw	r2,-4(fp)

  return active;
  800188:	e0bfff17 	ldw	r2,-4(fp)
  80018c:	00000706 	br	8001ac <alt_irq_handler+0xb0>
      }
      mask <<= 1;
  800190:	e0bffc17 	ldw	r2,-16(fp)
  800194:	1085883a 	add	r2,r2,r2
  800198:	e0bffc15 	stw	r2,-16(fp)
      i++;
  80019c:	e0bffd17 	ldw	r2,-12(fp)
  8001a0:	10800044 	addi	r2,r2,1
  8001a4:	e0bffd15 	stw	r2,-12(fp)

    } while (1);
  8001a8:	003fe006 	br	80012c <__alt_data_end+0xff80012c>

    active = alt_irq_pending ();
  8001ac:	e0bffb15 	stw	r2,-20(fp)
    
  } while (active);
  8001b0:	e0bffb17 	ldw	r2,-20(fp)
  8001b4:	103fda1e 	bne	r2,zero,800120 <__alt_data_end+0xff800120>

  /*
   * Notify the operating system that interrupt processing is complete.
   */ 

  ALT_OS_INT_EXIT();
  8001b8:	0001883a 	nop
}
  8001bc:	e037883a 	mov	sp,fp
  8001c0:	dfc00117 	ldw	ra,4(sp)
  8001c4:	df000017 	ldw	fp,0(sp)
  8001c8:	dec00204 	addi	sp,sp,8
  8001cc:	f800283a 	ret

008001d0 <alt_instruction_exception_entry>:
 * that handler if it has been registered. Absent a handler, it will
 * break break or hang as discussed below.
 */
int 
alt_instruction_exception_entry (alt_u32 exception_pc)
{
  8001d0:	defffb04 	addi	sp,sp,-20
  8001d4:	dfc00415 	stw	ra,16(sp)
  8001d8:	df000315 	stw	fp,12(sp)
  8001dc:	df000304 	addi	fp,sp,12
  8001e0:	e13fff15 	stw	r4,-4(fp)
 * NIOS2_EXCEPTION_CAUSE_NOT_PRESENT. Your handling routine should
 * check the validity of the cause argument before proceeding.
 */
#ifdef NIOS2_HAS_EXTRA_EXCEPTION_INFO
  /* Get exception cause & "badaddr" */
  NIOS2_READ_EXCEPTION(cause);
  8001e4:	000531fa 	rdctl	r2,exception
  8001e8:	e0bffd15 	stw	r2,-12(fp)
  cause = ( (cause & NIOS2_EXCEPTION_REG_CAUSE_MASK) >>
  8001ec:	e0bffd17 	ldw	r2,-12(fp)
  8001f0:	10801f0c 	andi	r2,r2,124
  8001f4:	1004d0ba 	srli	r2,r2,2
  8001f8:	e0bffd15 	stw	r2,-12(fp)
              NIOS2_EXCEPTION_REG_CAUSE_OFST );

  NIOS2_READ_BADADDR(badaddr);
  8001fc:	0005333a 	rdctl	r2,badaddr
  800200:	e0bffe15 	stw	r2,-8(fp)
#else
  cause = NIOS2_EXCEPTION_CAUSE_NOT_PRESENT;
  badaddr = 0;
#endif /* NIOS2_HAS_EXTRA_EXCEPTION_INFO */

  if(alt_instruction_exception_handler) {
  800204:	d0a76e17 	ldw	r2,-25160(gp)
  800208:	10000726 	beq	r2,zero,800228 <alt_instruction_exception_entry+0x58>
     * Call handler. Its return value indicates whether the exception-causing
     * instruction should be re-issued. The code that called us,
     * alt_eceptions_entry.S, will look at this value and adjust the ea
     * register as necessary
     */
    return alt_instruction_exception_handler(cause, exception_pc, badaddr);
  80020c:	d0a76e17 	ldw	r2,-25160(gp)
  800210:	e0fffd17 	ldw	r3,-12(fp)
  800214:	1809883a 	mov	r4,r3
  800218:	e17fff17 	ldw	r5,-4(fp)
  80021c:	e1bffe17 	ldw	r6,-8(fp)
  800220:	103ee83a 	callr	r2
  800224:	00000206 	br	800230 <alt_instruction_exception_entry+0x60>
   *    (a peripheral which negates its interrupt output before its
   *    interrupt handler has been executed will cause spurious interrupts)
   */
  else {
#ifdef NIOS2_HAS_DEBUG_STUB
    NIOS2_BREAK();
  800228:	003da03a 	break	0
      ;
#endif /* NIOS2_HAS_DEBUG_STUB */
  }

  /* We should not get here. Remove compiler warning. */
  return NIOS2_EXCEPTION_RETURN_REISSUE_INST;
  80022c:	0005883a 	mov	r2,zero
}
  800230:	e037883a 	mov	sp,fp
  800234:	dfc00117 	ldw	ra,4(sp)
  800238:	df000017 	ldw	fp,0(sp)
  80023c:	dec00204 	addi	sp,sp,8
  800240:	f800283a 	ret

Disassembly of section .text:

00800244 <_start>:

    /* Assume the data cache size is always a power of two. */
#if NIOS2_DCACHE_SIZE > 0x8000
    movhi r2, %hi(NIOS2_DCACHE_SIZE)
#else
    movui r2, NIOS2_DCACHE_SIZE
  800244:	00820014 	movui	r2,2048
#endif

0:
    initd 0(r2)
  800248:	10000033 	initd	0(r2)
#ifdef NIOS2_ECC_PRESENT
    addi r2, r2, -4
#else
    addi r2, r2, -NIOS2_DCACHE_LINE_SIZE
  80024c:	10bff804 	addi	r2,r2,-32
#endif
    bgt r2, zero, 0b
  800250:	00bffd16 	blt	zero,r2,800248 <__alt_data_end+0xff800248>

    /*
     * Now that the caches are initialized, set up the stack pointer and global pointer.
     * The values provided by the linker are assumed to be correctly aligned.
     */
    movhi sp, %hi(__alt_stack_pointer)
  800254:	06c04034 	movhi	sp,256
    ori sp, sp, %lo(__alt_stack_pointer)
  800258:	dec00014 	ori	sp,sp,0
    movhi gp, %hi(_gp)
  80025c:	06802074 	movhi	gp,129
    ori gp, gp, %lo(_gp)
  800260:	d6ab1b14 	ori	gp,gp,44140
 */
#ifndef ALT_SIM_OPTIMIZE
    /* Log that the BSS is about to be cleared. */
    ALT_LOG_PUTS(alt_log_msg_bss)

    movhi r2, %hi(__bss_start)
  800264:	00802074 	movhi	r2,129
    ori r2, r2, %lo(__bss_start)
  800268:	10927b14 	ori	r2,r2,18924

    movhi r3, %hi(__bss_end)
  80026c:	00c02074 	movhi	r3,129
    ori r3, r3, %lo(__bss_end)
  800270:	18d2d414 	ori	r3,r3,19280

    beq r2, r3, 1f
  800274:	10c00326 	beq	r2,r3,800284 <_start+0x40>

0:
    stw zero, (r2)
  800278:	10000015 	stw	zero,0(r2)
    addi r2, r2, 4
  80027c:	10800104 	addi	r2,r2,4
    bltu r2, r3, 0b
  800280:	10fffd36 	bltu	r2,r3,800278 <__alt_data_end+0xff800278>
     * section aren't defined until alt_load() has been called).
     */
    mov   et, zero
#endif

    call alt_load
  800284:	080cc280 	call	80cc28 <alt_load>

    /* Log that alt_main is about to be called. */
    ALT_LOG_PUTS(alt_log_msg_alt_main)

    /* Call the C entry point. It should never return. */
    call alt_main
  800288:	080cdcc0 	call	80cdcc <alt_main>

0080028c <alt_after_alt_main>:

    /* Wait in infinite loop in case alt_main does return. */
alt_after_alt_main:
    br alt_after_alt_main
  80028c:	003fff06 	br	80028c <__alt_data_end+0xff80028c>

00800290 <background>:

//#define interrupt
#define polling

int background()
{
  800290:	defffb04 	addi	sp,sp,-20
  800294:	df000415 	stw	fp,16(sp)
  800298:	df000404 	addi	fp,sp,16
	int j;
	int x = 0;
  80029c:	e03ffe15 	stw	zero,-8(fp)
	int grainsize = 4;
  8002a0:	00800104 	movi	r2,4
  8002a4:	e0bfff15 	stw	r2,-4(fp)
	int g_taskProcessed = 0;
  8002a8:	e03ffd15 	stw	zero,-12(fp)
	for (j = 0; j < grainsize; j++)
  8002ac:	e03ffc15 	stw	zero,-16(fp)
  8002b0:	00000606 	br	8002cc <background+0x3c>
	{
		g_taskProcessed++;
  8002b4:	e0bffd17 	ldw	r2,-12(fp)
  8002b8:	10800044 	addi	r2,r2,1
  8002bc:	e0bffd15 	stw	r2,-12(fp)
{
	int j;
	int x = 0;
	int grainsize = 4;
	int g_taskProcessed = 0;
	for (j = 0; j < grainsize; j++)
  8002c0:	e0bffc17 	ldw	r2,-16(fp)
  8002c4:	10800044 	addi	r2,r2,1
  8002c8:	e0bffc15 	stw	r2,-16(fp)
  8002cc:	e0fffc17 	ldw	r3,-16(fp)
  8002d0:	e0bfff17 	ldw	r2,-4(fp)
  8002d4:	18bff716 	blt	r3,r2,8002b4 <__alt_data_end+0xff8002b4>
	{
		g_taskProcessed++;
	}
	return x;
  8002d8:	e0bffe17 	ldw	r2,-8(fp)
}
  8002dc:	e037883a 	mov	sp,fp
  8002e0:	df000017 	ldw	fp,0(sp)
  8002e4:	dec00104 	addi	sp,sp,4
  8002e8:	f800283a 	ret

008002ec <stimulus_in_ISR>:

static void stimulus_in_ISR(void *context, alt_u32 id)
{
  8002ec:	defffd04 	addi	sp,sp,-12
  8002f0:	df000215 	stw	fp,8(sp)
  8002f4:	df000204 	addi	fp,sp,8
  8002f8:	e13ffe15 	stw	r4,-8(fp)
  8002fc:	e17fff15 	stw	r5,-4(fp)
	// Return to Response Out here
	background_count += 1;
  800300:	d0a76017 	ldw	r2,-25216(gp)
  800304:	10800044 	addi	r2,r2,1
  800308:	d0a76015 	stw	r2,-25216(gp)
	IOWR(RESPONSE_OUT_BASE, 0, 1);
  80030c:	00c00044 	movi	r3,1
  800310:	00804034 	movhi	r2,256
  800314:	10843004 	addi	r2,r2,4288
  800318:	10c00035 	stwio	r3,0(r2)
	IOWR(RESPONSE_OUT_BASE, 0, 0);
  80031c:	0007883a 	mov	r3,zero
  800320:	00804034 	movhi	r2,256
  800324:	10843004 	addi	r2,r2,4288
  800328:	10c00035 	stwio	r3,0(r2)
	// clear our interrupt bit here
	IOWR(STIMULUS_IN_BASE, 3, 0x0);
  80032c:	0007883a 	mov	r3,zero
  800330:	00804034 	movhi	r2,256
  800334:	10843704 	addi	r2,r2,4316
  800338:	10c00035 	stwio	r3,0(r2)
}
  80033c:	e037883a 	mov	sp,fp
  800340:	df000017 	ldw	fp,0(sp)
  800344:	dec00104 	addi	sp,sp,4
  800348:	f800283a 	ret

0080034c <main>:

int main()
{
  80034c:	defff604 	addi	sp,sp,-40
  800350:	dfc00915 	stw	ra,36(sp)
  800354:	df000815 	stw	fp,32(sp)
  800358:	df000804 	addi	fp,sp,32
#ifdef interrupt
	alt_irq_register(STIMULUS_IN_IRQ, (void *)0, stimulus_in_ISR);

	IOWR(STIMULUS_IN_BASE, 2, 0x1);
#endif
	IOWR(RESPONSE_OUT_BASE, 4, 1);
  80035c:	00c00044 	movi	r3,1
  800360:	00804034 	movhi	r2,256
  800364:	10843404 	addi	r2,r2,4304
  800368:	10c00035 	stwio	r3,0(r2)
	IOWR(RESPONSE_OUT_BASE, 5, 1);
  80036c:	00c00044 	movi	r3,1
  800370:	00804034 	movhi	r2,256
  800374:	10843504 	addi	r2,r2,4308
  800378:	10c00035 	stwio	r3,0(r2)
	int avg_latency, missed, multi;

	// max period 0xffff
	int period = 1000;
  80037c:	0080fa04 	movi	r2,1000
  800380:	e0bffb15 	stw	r2,-20(fp)
	int pulse_width = period / 2;
  800384:	e0bffb17 	ldw	r2,-20(fp)
  800388:	1006d7fa 	srli	r3,r2,31
  80038c:	1885883a 	add	r2,r3,r2
  800390:	1005d07a 	srai	r2,r2,1
  800394:	e0bffc15 	stw	r2,-16(fp)
	IOWR(EGM_BASE, 2, period);
  800398:	00804034 	movhi	r2,256
  80039c:	10840204 	addi	r2,r2,4104
  8003a0:	e0fffb17 	ldw	r3,-20(fp)
  8003a4:	10c00035 	stwio	r3,0(r2)
	IOWR(EGM_BASE, 3, pulse_width);
  8003a8:	00804034 	movhi	r2,256
  8003ac:	10840304 	addi	r2,r2,4108
  8003b0:	e0fffc17 	ldw	r3,-16(fp)
  8003b4:	10c00035 	stwio	r3,0(r2)
	{
		background();
	}
#endif
#ifdef polling
	int character_timing = -1;
  8003b8:	00bfffc4 	movi	r2,-1
  8003bc:	e0bff915 	stw	r2,-28(fp)
	int i;
	IOWR(EGM_BASE, 0, 1);
  8003c0:	00c00044 	movi	r3,1
  8003c4:	00804034 	movhi	r2,256
  8003c8:	10840004 	addi	r2,r2,4096
  8003cc:	10c00035 	stwio	r3,0(r2)
	while (IORD(STIMULUS_IN_BASE, 0) == 0)
  8003d0:	0001883a 	nop
  8003d4:	00804034 	movhi	r2,256
  8003d8:	10843404 	addi	r2,r2,4304
  8003dc:	10800037 	ldwio	r2,0(r2)
  8003e0:	103ffc26 	beq	r2,zero,8003d4 <__alt_data_end+0xff8003d4>
	{
	}
	IOWR(RESPONSE_OUT_BASE, 0, 1);
  8003e4:	00c00044 	movi	r3,1
  8003e8:	00804034 	movhi	r2,256
  8003ec:	10843004 	addi	r2,r2,4288
  8003f0:	10c00035 	stwio	r3,0(r2)
	IOWR(RESPONSE_OUT_BASE, 0, 0);
  8003f4:	0007883a 	mov	r3,zero
  8003f8:	00804034 	movhi	r2,256
  8003fc:	10843004 	addi	r2,r2,4288
  800400:	10c00035 	stwio	r3,0(r2)
	while (IORD(EGM_BASE, 1))
  800404:	00003706 	br	8004e4 <main+0x198>
	{
		if (character_timing < 0)
  800408:	e0bff917 	ldw	r2,-28(fp)
  80040c:	1000180e 	bge	r2,zero,800470 <main+0x124>
		{
			while (IORD(STIMULUS_IN_BASE, 0) == 0)
  800410:	00000406 	br	800424 <main+0xd8>
			{
				background();
  800414:	08002900 	call	800290 <background>
				background_count += 1;
  800418:	d0a76017 	ldw	r2,-25216(gp)
  80041c:	10800044 	addi	r2,r2,1
  800420:	d0a76015 	stw	r2,-25216(gp)
	IOWR(RESPONSE_OUT_BASE, 0, 0);
	while (IORD(EGM_BASE, 1))
	{
		if (character_timing < 0)
		{
			while (IORD(STIMULUS_IN_BASE, 0) == 0)
  800424:	00804034 	movhi	r2,256
  800428:	10843404 	addi	r2,r2,4304
  80042c:	10800037 	ldwio	r2,0(r2)
  800430:	103ff826 	beq	r2,zero,800414 <__alt_data_end+0xff800414>
			{
				background();
				background_count += 1;
			}
			character_timing = background_count - 1;
  800434:	d0a76017 	ldw	r2,-25216(gp)
  800438:	10bfffc4 	addi	r2,r2,-1
  80043c:	e0bff915 	stw	r2,-28(fp)
			IOWR(STIMULUS_IN_BASE, 0, 0x00);
  800440:	0007883a 	mov	r3,zero
  800444:	00804034 	movhi	r2,256
  800448:	10843404 	addi	r2,r2,4304
  80044c:	10c00035 	stwio	r3,0(r2)
			IOWR(RESPONSE_OUT_BASE, 0, 1);
  800450:	00c00044 	movi	r3,1
  800454:	00804034 	movhi	r2,256
  800458:	10843004 	addi	r2,r2,4288
  80045c:	10c00035 	stwio	r3,0(r2)
			IOWR(RESPONSE_OUT_BASE, 0, 0);
  800460:	0007883a 	mov	r3,zero
  800464:	00804034 	movhi	r2,256
  800468:	10843004 	addi	r2,r2,4288
  80046c:	10c00035 	stwio	r3,0(r2)
		}
		for (i = 0; i < character_timing; i++)
  800470:	e03ffa15 	stw	zero,-24(fp)
  800474:	00000706 	br	800494 <main+0x148>
		{
			background();
  800478:	08002900 	call	800290 <background>
			background_count += 1;
  80047c:	d0a76017 	ldw	r2,-25216(gp)
  800480:	10800044 	addi	r2,r2,1
  800484:	d0a76015 	stw	r2,-25216(gp)
			character_timing = background_count - 1;
			IOWR(STIMULUS_IN_BASE, 0, 0x00);
			IOWR(RESPONSE_OUT_BASE, 0, 1);
			IOWR(RESPONSE_OUT_BASE, 0, 0);
		}
		for (i = 0; i < character_timing; i++)
  800488:	e0bffa17 	ldw	r2,-24(fp)
  80048c:	10800044 	addi	r2,r2,1
  800490:	e0bffa15 	stw	r2,-24(fp)
  800494:	e0fffa17 	ldw	r3,-24(fp)
  800498:	e0bff917 	ldw	r2,-28(fp)
  80049c:	18bff616 	blt	r3,r2,800478 <__alt_data_end+0xff800478>
		{
			background();
			background_count += 1;
		}
		if (IORD(STIMULUS_IN_BASE, 0) == 1)
  8004a0:	00804034 	movhi	r2,256
  8004a4:	10843404 	addi	r2,r2,4304
  8004a8:	10800037 	ldwio	r2,0(r2)
  8004ac:	10800058 	cmpnei	r2,r2,1
  8004b0:	10000c1e 	bne	r2,zero,8004e4 <main+0x198>
		{
			IOWR(STIMULUS_IN_BASE, 0, 0x00);
  8004b4:	0007883a 	mov	r3,zero
  8004b8:	00804034 	movhi	r2,256
  8004bc:	10843404 	addi	r2,r2,4304
  8004c0:	10c00035 	stwio	r3,0(r2)
			IOWR(RESPONSE_OUT_BASE, 0, 1);
  8004c4:	00c00044 	movi	r3,1
  8004c8:	00804034 	movhi	r2,256
  8004cc:	10843004 	addi	r2,r2,4288
  8004d0:	10c00035 	stwio	r3,0(r2)
			IOWR(RESPONSE_OUT_BASE, 0, 0);
  8004d4:	0007883a 	mov	r3,zero
  8004d8:	00804034 	movhi	r2,256
  8004dc:	10843004 	addi	r2,r2,4288
  8004e0:	10c00035 	stwio	r3,0(r2)
	while (IORD(STIMULUS_IN_BASE, 0) == 0)
	{
	}
	IOWR(RESPONSE_OUT_BASE, 0, 1);
	IOWR(RESPONSE_OUT_BASE, 0, 0);
	while (IORD(EGM_BASE, 1))
  8004e4:	00804034 	movhi	r2,256
  8004e8:	10840104 	addi	r2,r2,4100
  8004ec:	10800037 	ldwio	r2,0(r2)
  8004f0:	103fc51e 	bne	r2,zero,800408 <__alt_data_end+0xff800408>
			IOWR(STIMULUS_IN_BASE, 0, 0x00);
			IOWR(RESPONSE_OUT_BASE, 0, 1);
			IOWR(RESPONSE_OUT_BASE, 0, 0);
		}
	}
	printf("character count %d \n", character_timing);
  8004f4:	01002074 	movhi	r4,129
  8004f8:	21025804 	addi	r4,r4,2400
  8004fc:	e17ff917 	ldw	r5,-28(fp)
  800500:	08005ac0 	call	8005ac <printf>
	 *
	 * Remember that our data needs to be:
	 * Output results for each test run:
	 * (PERIOD, PULSE WIDTH, BG TASK CALLS RUN, AVG LATENCY, MISSED and MULTI PULSES (separated by commas))
	 */
	avg_latency = IORD(EGM_BASE, 4);
  800504:	00804034 	movhi	r2,256
  800508:	10840404 	addi	r2,r2,4112
  80050c:	10800037 	ldwio	r2,0(r2)
  800510:	e0bffd15 	stw	r2,-12(fp)
	missed = IORD(EGM_BASE, 5);
  800514:	00804034 	movhi	r2,256
  800518:	10840504 	addi	r2,r2,4116
  80051c:	10800037 	ldwio	r2,0(r2)
  800520:	e0bffe15 	stw	r2,-8(fp)
	multi = IORD(EGM_BASE, 6);
  800524:	00804034 	movhi	r2,256
  800528:	10840604 	addi	r2,r2,4120
  80052c:	10800037 	ldwio	r2,0(r2)
  800530:	e0bfff15 	stw	r2,-4(fp)

	IOWR(EGM_BASE, 0, 0);
  800534:	0007883a 	mov	r3,zero
  800538:	00804034 	movhi	r2,256
  80053c:	10840004 	addi	r2,r2,4096
  800540:	10c00035 	stwio	r3,0(r2)

	printf("done program %d with avg_latency: %d, missed: %d, multi: %d \n", background_count, avg_latency, missed, multi);
  800544:	d0e76017 	ldw	r3,-25216(gp)
  800548:	e0bfff17 	ldw	r2,-4(fp)
  80054c:	d8800015 	stw	r2,0(sp)
  800550:	01002074 	movhi	r4,129
  800554:	21025e04 	addi	r4,r4,2424
  800558:	180b883a 	mov	r5,r3
  80055c:	e1bffd17 	ldw	r6,-12(fp)
  800560:	e1fffe17 	ldw	r7,-8(fp)
  800564:	08005ac0 	call	8005ac <printf>
	return 0;
  800568:	0005883a 	mov	r2,zero
}
  80056c:	e037883a 	mov	sp,fp
  800570:	dfc00117 	ldw	ra,4(sp)
  800574:	df000017 	ldw	fp,0(sp)
  800578:	dec00204 	addi	sp,sp,8
  80057c:	f800283a 	ret

00800580 <_printf_r>:
  800580:	defffd04 	addi	sp,sp,-12
  800584:	dfc00015 	stw	ra,0(sp)
  800588:	d9800115 	stw	r6,4(sp)
  80058c:	d9c00215 	stw	r7,8(sp)
  800590:	280d883a 	mov	r6,r5
  800594:	21400217 	ldw	r5,8(r4)
  800598:	d9c00104 	addi	r7,sp,4
  80059c:	08005e80 	call	8005e8 <___vfprintf_internal_r>
  8005a0:	dfc00017 	ldw	ra,0(sp)
  8005a4:	dec00304 	addi	sp,sp,12
  8005a8:	f800283a 	ret

008005ac <printf>:
  8005ac:	defffc04 	addi	sp,sp,-16
  8005b0:	dfc00015 	stw	ra,0(sp)
  8005b4:	d9400115 	stw	r5,4(sp)
  8005b8:	d9800215 	stw	r6,8(sp)
  8005bc:	d9c00315 	stw	r7,12(sp)
  8005c0:	00802074 	movhi	r2,129
  8005c4:	108b1c04 	addi	r2,r2,11376
  8005c8:	10800017 	ldw	r2,0(r2)
  8005cc:	200b883a 	mov	r5,r4
  8005d0:	d9800104 	addi	r6,sp,4
  8005d4:	11000217 	ldw	r4,8(r2)
  8005d8:	08025380 	call	802538 <__vfprintf_internal>
  8005dc:	dfc00017 	ldw	ra,0(sp)
  8005e0:	dec00404 	addi	sp,sp,16
  8005e4:	f800283a 	ret

008005e8 <___vfprintf_internal_r>:
  8005e8:	deffb604 	addi	sp,sp,-296
  8005ec:	dfc04915 	stw	ra,292(sp)
  8005f0:	ddc04715 	stw	r23,284(sp)
  8005f4:	dd804615 	stw	r22,280(sp)
  8005f8:	282f883a 	mov	r23,r5
  8005fc:	202d883a 	mov	r22,r4
  800600:	d9802a15 	stw	r6,168(sp)
  800604:	d9c02d15 	stw	r7,180(sp)
  800608:	df004815 	stw	fp,288(sp)
  80060c:	dd404515 	stw	r21,276(sp)
  800610:	dd004415 	stw	r20,272(sp)
  800614:	dcc04315 	stw	r19,268(sp)
  800618:	dc804215 	stw	r18,264(sp)
  80061c:	dc404115 	stw	r17,260(sp)
  800620:	dc004015 	stw	r16,256(sp)
  800624:	0804d100 	call	804d10 <_localeconv_r>
  800628:	10800017 	ldw	r2,0(r2)
  80062c:	1009883a 	mov	r4,r2
  800630:	d8803515 	stw	r2,212(sp)
  800634:	0806c300 	call	806c30 <strlen>
  800638:	d8803815 	stw	r2,224(sp)
  80063c:	b0000226 	beq	r22,zero,800648 <___vfprintf_internal_r+0x60>
  800640:	b0800e17 	ldw	r2,56(r22)
  800644:	1000e126 	beq	r2,zero,8009cc <___vfprintf_internal_r+0x3e4>
  800648:	b880030b 	ldhu	r2,12(r23)
  80064c:	10c8000c 	andi	r3,r2,8192
  800650:	1800061e 	bne	r3,zero,80066c <___vfprintf_internal_r+0x84>
  800654:	b9001917 	ldw	r4,100(r23)
  800658:	00f7ffc4 	movi	r3,-8193
  80065c:	10880014 	ori	r2,r2,8192
  800660:	20c6703a 	and	r3,r4,r3
  800664:	b880030d 	sth	r2,12(r23)
  800668:	b8c01915 	stw	r3,100(r23)
  80066c:	10c0020c 	andi	r3,r2,8
  800670:	1800a726 	beq	r3,zero,800910 <___vfprintf_internal_r+0x328>
  800674:	b8c00417 	ldw	r3,16(r23)
  800678:	1800a526 	beq	r3,zero,800910 <___vfprintf_internal_r+0x328>
  80067c:	1080068c 	andi	r2,r2,26
  800680:	00c00284 	movi	r3,10
  800684:	10c0aa26 	beq	r2,r3,800930 <___vfprintf_internal_r+0x348>
  800688:	dac01e04 	addi	r11,sp,120
  80068c:	db001dc4 	addi	r12,sp,119
  800690:	d8800404 	addi	r2,sp,16
  800694:	05002074 	movhi	r20,129
  800698:	dac02815 	stw	r11,160(sp)
  80069c:	5b17c83a 	sub	r11,r11,r12
  8006a0:	a5027e84 	addi	r20,r20,2554
  8006a4:	db002915 	stw	r12,164(sp)
  8006a8:	d8801e15 	stw	r2,120(sp)
  8006ac:	d8002015 	stw	zero,128(sp)
  8006b0:	d8001f15 	stw	zero,124(sp)
  8006b4:	d8003315 	stw	zero,204(sp)
  8006b8:	d8003715 	stw	zero,220(sp)
  8006bc:	d8003915 	stw	zero,228(sp)
  8006c0:	1011883a 	mov	r8,r2
  8006c4:	d8003b15 	stw	zero,236(sp)
  8006c8:	d8003a15 	stw	zero,232(sp)
  8006cc:	d8002f15 	stw	zero,188(sp)
  8006d0:	dac03c15 	stw	r11,240(sp)
  8006d4:	db002a17 	ldw	r12,168(sp)
  8006d8:	60800007 	ldb	r2,0(r12)
  8006dc:	1000be26 	beq	r2,zero,8009d8 <___vfprintf_internal_r+0x3f0>
  8006e0:	00c00944 	movi	r3,37
  8006e4:	10c0bc26 	beq	r2,r3,8009d8 <___vfprintf_internal_r+0x3f0>
  8006e8:	6021883a 	mov	r16,r12
  8006ec:	00000106 	br	8006f4 <___vfprintf_internal_r+0x10c>
  8006f0:	10c08426 	beq	r2,r3,800904 <___vfprintf_internal_r+0x31c>
  8006f4:	84000044 	addi	r16,r16,1
  8006f8:	80800007 	ldb	r2,0(r16)
  8006fc:	103ffc1e 	bne	r2,zero,8006f0 <__alt_data_end+0xff8006f0>
  800700:	dac02a17 	ldw	r11,168(sp)
  800704:	82e3c83a 	sub	r17,r16,r11
  800708:	88000f26 	beq	r17,zero,800748 <___vfprintf_internal_r+0x160>
  80070c:	d8c02017 	ldw	r3,128(sp)
  800710:	d8801f17 	ldw	r2,124(sp)
  800714:	dac02a17 	ldw	r11,168(sp)
  800718:	1c47883a 	add	r3,r3,r17
  80071c:	10800044 	addi	r2,r2,1
  800720:	d8c02015 	stw	r3,128(sp)
  800724:	42c00015 	stw	r11,0(r8)
  800728:	44400115 	stw	r17,4(r8)
  80072c:	d8801f15 	stw	r2,124(sp)
  800730:	00c001c4 	movi	r3,7
  800734:	18809316 	blt	r3,r2,800984 <___vfprintf_internal_r+0x39c>
  800738:	42000204 	addi	r8,r8,8
  80073c:	db002f17 	ldw	r12,188(sp)
  800740:	6459883a 	add	r12,r12,r17
  800744:	db002f15 	stw	r12,188(sp)
  800748:	80800007 	ldb	r2,0(r16)
  80074c:	10009426 	beq	r2,zero,8009a0 <___vfprintf_internal_r+0x3b8>
  800750:	80800044 	addi	r2,r16,1
  800754:	84000047 	ldb	r16,1(r16)
  800758:	d8002785 	stb	zero,158(sp)
  80075c:	000d883a 	mov	r6,zero
  800760:	027fffc4 	movi	r9,-1
  800764:	d8002e15 	stw	zero,184(sp)
  800768:	0023883a 	mov	r17,zero
  80076c:	01001604 	movi	r4,88
  800770:	01400244 	movi	r5,9
  800774:	02800a84 	movi	r10,42
  800778:	01c01b04 	movi	r7,108
  80077c:	10c00044 	addi	r3,r2,1
  800780:	80bff804 	addi	r2,r16,-32
  800784:	2082cd36 	bltu	r4,r2,8012bc <___vfprintf_internal_r+0xcd4>
  800788:	100490ba 	slli	r2,r2,2
  80078c:	02c02034 	movhi	r11,128
  800790:	5ac1e804 	addi	r11,r11,1952
  800794:	12c5883a 	add	r2,r2,r11
  800798:	10800017 	ldw	r2,0(r2)
  80079c:	1000683a 	jmp	r2
  8007a0:	008010d4 	movui	r2,67
  8007a4:	008012bc 	xorhi	r2,zero,74
  8007a8:	008012bc 	xorhi	r2,zero,74
  8007ac:	00801224 	muli	r2,zero,72
  8007b0:	008012bc 	xorhi	r2,zero,74
  8007b4:	008012bc 	xorhi	r2,zero,74
  8007b8:	008012bc 	xorhi	r2,zero,74
  8007bc:	008012bc 	xorhi	r2,zero,74
  8007c0:	008012bc 	xorhi	r2,zero,74
  8007c4:	008012bc 	xorhi	r2,zero,74
  8007c8:	008010f4 	movhi	r2,67
  8007cc:	00801120 	cmpeqi	r2,zero,68
  8007d0:	008012bc 	xorhi	r2,zero,74
  8007d4:	008009e0 	cmpeqi	r2,zero,39
  8007d8:	008009f0 	cmpltui	r2,zero,39
  8007dc:	008012bc 	xorhi	r2,zero,74
  8007e0:	00800a30 	cmpltui	r2,zero,40
  8007e4:	00800a40 	call	800a4 <__alt_mem_sdram_0-0x77ff5c>
  8007e8:	00800a40 	call	800a4 <__alt_mem_sdram_0-0x77ff5c>
  8007ec:	00800a40 	call	800a4 <__alt_mem_sdram_0-0x77ff5c>
  8007f0:	00800a40 	call	800a4 <__alt_mem_sdram_0-0x77ff5c>
  8007f4:	00800a40 	call	800a4 <__alt_mem_sdram_0-0x77ff5c>
  8007f8:	00800a40 	call	800a4 <__alt_mem_sdram_0-0x77ff5c>
  8007fc:	00800a40 	call	800a4 <__alt_mem_sdram_0-0x77ff5c>
  800800:	00800a40 	call	800a4 <__alt_mem_sdram_0-0x77ff5c>
  800804:	00800a40 	call	800a4 <__alt_mem_sdram_0-0x77ff5c>
  800808:	008012bc 	xorhi	r2,zero,74
  80080c:	008012bc 	xorhi	r2,zero,74
  800810:	008012bc 	xorhi	r2,zero,74
  800814:	008012bc 	xorhi	r2,zero,74
  800818:	008012bc 	xorhi	r2,zero,74
  80081c:	008012bc 	xorhi	r2,zero,74
  800820:	008012bc 	xorhi	r2,zero,74
  800824:	008012bc 	xorhi	r2,zero,74
  800828:	008012bc 	xorhi	r2,zero,74
  80082c:	008012bc 	xorhi	r2,zero,74
  800830:	00800a74 	movhi	r2,41
  800834:	00800ee4 	muli	r2,zero,59
  800838:	008012bc 	xorhi	r2,zero,74
  80083c:	00800ee4 	muli	r2,zero,59
  800840:	008012bc 	xorhi	r2,zero,74
  800844:	008012bc 	xorhi	r2,zero,74
  800848:	008012bc 	xorhi	r2,zero,74
  80084c:	008012bc 	xorhi	r2,zero,74
  800850:	00800fd0 	cmplti	r2,zero,63
  800854:	008012bc 	xorhi	r2,zero,74
  800858:	008012bc 	xorhi	r2,zero,74
  80085c:	00800e78 	rdprs	r2,zero,57
  800860:	008012bc 	xorhi	r2,zero,74
  800864:	008012bc 	xorhi	r2,zero,74
  800868:	008012bc 	xorhi	r2,zero,74
  80086c:	008012bc 	xorhi	r2,zero,74
  800870:	008012bc 	xorhi	r2,zero,74
  800874:	00800eb4 	movhi	r2,58
  800878:	008012bc 	xorhi	r2,zero,74
  80087c:	008012bc 	xorhi	r2,zero,74
  800880:	00801078 	rdprs	r2,zero,65
  800884:	008012bc 	xorhi	r2,zero,74
  800888:	008012bc 	xorhi	r2,zero,74
  80088c:	008012bc 	xorhi	r2,zero,74
  800890:	008012bc 	xorhi	r2,zero,74
  800894:	008012bc 	xorhi	r2,zero,74
  800898:	008012bc 	xorhi	r2,zero,74
  80089c:	008012bc 	xorhi	r2,zero,74
  8008a0:	008012bc 	xorhi	r2,zero,74
  8008a4:	008012bc 	xorhi	r2,zero,74
  8008a8:	008012bc 	xorhi	r2,zero,74
  8008ac:	00801130 	cmpltui	r2,zero,68
  8008b0:	00800fe0 	cmpeqi	r2,zero,63
  8008b4:	00800ee4 	muli	r2,zero,59
  8008b8:	00800ee4 	muli	r2,zero,59
  8008bc:	00800ee4 	muli	r2,zero,59
  8008c0:	00801020 	cmpeqi	r2,zero,64
  8008c4:	00800fe0 	cmpeqi	r2,zero,63
  8008c8:	008012bc 	xorhi	r2,zero,74
  8008cc:	008012bc 	xorhi	r2,zero,74
  8008d0:	00801030 	cmpltui	r2,zero,64
  8008d4:	008012bc 	xorhi	r2,zero,74
  8008d8:	00801044 	movi	r2,65
  8008dc:	00801280 	call	80128 <__alt_mem_sdram_0-0x77fed8>
  8008e0:	00800f88 	cmpgei	r2,zero,62
  8008e4:	00801234 	movhi	r2,72
  8008e8:	008012bc 	xorhi	r2,zero,74
  8008ec:	00801170 	cmpltui	r2,zero,69
  8008f0:	008012bc 	xorhi	r2,zero,74
  8008f4:	00801244 	movi	r2,73
  8008f8:	008012bc 	xorhi	r2,zero,74
  8008fc:	008012bc 	xorhi	r2,zero,74
  800900:	008011e4 	muli	r2,zero,71
  800904:	db002a17 	ldw	r12,168(sp)
  800908:	8323c83a 	sub	r17,r16,r12
  80090c:	003f7e06 	br	800708 <__alt_data_end+0xff800708>
  800910:	b009883a 	mov	r4,r22
  800914:	b80b883a 	mov	r5,r23
  800918:	08026180 	call	802618 <__swsetup_r>
  80091c:	10000c1e 	bne	r2,zero,800950 <___vfprintf_internal_r+0x368>
  800920:	b880030b 	ldhu	r2,12(r23)
  800924:	00c00284 	movi	r3,10
  800928:	1080068c 	andi	r2,r2,26
  80092c:	10ff561e 	bne	r2,r3,800688 <__alt_data_end+0xff800688>
  800930:	b880038f 	ldh	r2,14(r23)
  800934:	103f5416 	blt	r2,zero,800688 <__alt_data_end+0xff800688>
  800938:	d9802a17 	ldw	r6,168(sp)
  80093c:	d9c02d17 	ldw	r7,180(sp)
  800940:	b009883a 	mov	r4,r22
  800944:	b80b883a 	mov	r5,r23
  800948:	080255c0 	call	80255c <__sbprintf>
  80094c:	00000106 	br	800954 <___vfprintf_internal_r+0x36c>
  800950:	00bfffc4 	movi	r2,-1
  800954:	dfc04917 	ldw	ra,292(sp)
  800958:	df004817 	ldw	fp,288(sp)
  80095c:	ddc04717 	ldw	r23,284(sp)
  800960:	dd804617 	ldw	r22,280(sp)
  800964:	dd404517 	ldw	r21,276(sp)
  800968:	dd004417 	ldw	r20,272(sp)
  80096c:	dcc04317 	ldw	r19,268(sp)
  800970:	dc804217 	ldw	r18,264(sp)
  800974:	dc404117 	ldw	r17,260(sp)
  800978:	dc004017 	ldw	r16,256(sp)
  80097c:	dec04a04 	addi	sp,sp,296
  800980:	f800283a 	ret
  800984:	b009883a 	mov	r4,r22
  800988:	b80b883a 	mov	r5,r23
  80098c:	d9801e04 	addi	r6,sp,120
  800990:	0806dc40 	call	806dc4 <__sprint_r>
  800994:	1000081e 	bne	r2,zero,8009b8 <___vfprintf_internal_r+0x3d0>
  800998:	da000404 	addi	r8,sp,16
  80099c:	003f6706 	br	80073c <__alt_data_end+0xff80073c>
  8009a0:	d8802017 	ldw	r2,128(sp)
  8009a4:	10000426 	beq	r2,zero,8009b8 <___vfprintf_internal_r+0x3d0>
  8009a8:	b009883a 	mov	r4,r22
  8009ac:	b80b883a 	mov	r5,r23
  8009b0:	d9801e04 	addi	r6,sp,120
  8009b4:	0806dc40 	call	806dc4 <__sprint_r>
  8009b8:	b880030b 	ldhu	r2,12(r23)
  8009bc:	1080100c 	andi	r2,r2,64
  8009c0:	103fe31e 	bne	r2,zero,800950 <__alt_data_end+0xff800950>
  8009c4:	d8802f17 	ldw	r2,188(sp)
  8009c8:	003fe206 	br	800954 <__alt_data_end+0xff800954>
  8009cc:	b009883a 	mov	r4,r22
  8009d0:	08046780 	call	804678 <__sinit>
  8009d4:	003f1c06 	br	800648 <__alt_data_end+0xff800648>
  8009d8:	dc002a17 	ldw	r16,168(sp)
  8009dc:	003f5a06 	br	800748 <__alt_data_end+0xff800748>
  8009e0:	1805883a 	mov	r2,r3
  8009e4:	8c400114 	ori	r17,r17,4
  8009e8:	1c000007 	ldb	r16,0(r3)
  8009ec:	003f6306 	br	80077c <__alt_data_end+0xff80077c>
  8009f0:	1c000007 	ldb	r16,0(r3)
  8009f4:	18800044 	addi	r2,r3,1
  8009f8:	8286ad26 	beq	r16,r10,8024b0 <___vfprintf_internal_r+0x1ec8>
  8009fc:	82fff404 	addi	r11,r16,-48
  800a00:	1007883a 	mov	r3,r2
  800a04:	0013883a 	mov	r9,zero
  800a08:	2aff5d36 	bltu	r5,r11,800780 <__alt_data_end+0xff800780>
  800a0c:	1c000007 	ldb	r16,0(r3)
  800a10:	4a4002a4 	muli	r9,r9,10
  800a14:	18c00044 	addi	r3,r3,1
  800a18:	5a53883a 	add	r9,r11,r9
  800a1c:	82fff404 	addi	r11,r16,-48
  800a20:	2afffa2e 	bgeu	r5,r11,800a0c <__alt_data_end+0xff800a0c>
  800a24:	483f560e 	bge	r9,zero,800780 <__alt_data_end+0xff800780>
  800a28:	027fffc4 	movi	r9,-1
  800a2c:	003f5406 	br	800780 <__alt_data_end+0xff800780>
  800a30:	8c402014 	ori	r17,r17,128
  800a34:	1805883a 	mov	r2,r3
  800a38:	1c000007 	ldb	r16,0(r3)
  800a3c:	003f4f06 	br	80077c <__alt_data_end+0xff80077c>
  800a40:	1805883a 	mov	r2,r3
  800a44:	d8002e15 	stw	zero,184(sp)
  800a48:	82fff404 	addi	r11,r16,-48
  800a4c:	0019883a 	mov	r12,zero
  800a50:	14000007 	ldb	r16,0(r2)
  800a54:	630002a4 	muli	r12,r12,10
  800a58:	18c00044 	addi	r3,r3,1
  800a5c:	1805883a 	mov	r2,r3
  800a60:	62d9883a 	add	r12,r12,r11
  800a64:	82fff404 	addi	r11,r16,-48
  800a68:	2afff92e 	bgeu	r5,r11,800a50 <__alt_data_end+0xff800a50>
  800a6c:	db002e15 	stw	r12,184(sp)
  800a70:	003f4306 	br	800780 <__alt_data_end+0xff800780>
  800a74:	8c400414 	ori	r17,r17,16
  800a78:	d8c02a15 	stw	r3,168(sp)
  800a7c:	d9802785 	stb	r6,158(sp)
  800a80:	8880080c 	andi	r2,r17,32
  800a84:	d8c02d17 	ldw	r3,180(sp)
  800a88:	10015a26 	beq	r2,zero,800ff4 <___vfprintf_internal_r+0xa0c>
  800a8c:	db002d17 	ldw	r12,180(sp)
  800a90:	18800117 	ldw	r2,4(r3)
  800a94:	1cc00017 	ldw	r19,0(r3)
  800a98:	63000204 	addi	r12,r12,8
  800a9c:	db002d15 	stw	r12,180(sp)
  800aa0:	1039883a 	mov	fp,r2
  800aa4:	10044516 	blt	r2,zero,801bbc <___vfprintf_internal_r+0x15d4>
  800aa8:	dd402783 	ldbu	r21,158(sp)
  800aac:	da403215 	stw	r9,200(sp)
  800ab0:	00800044 	movi	r2,1
  800ab4:	9f06b03a 	or	r3,r19,fp
  800ab8:	48000216 	blt	r9,zero,800ac4 <___vfprintf_internal_r+0x4dc>
  800abc:	013fdfc4 	movi	r4,-129
  800ac0:	8922703a 	and	r17,r17,r4
  800ac4:	1802071e 	bne	r3,zero,8012e4 <___vfprintf_internal_r+0xcfc>
  800ac8:	4802fa26 	beq	r9,zero,8016b4 <___vfprintf_internal_r+0x10cc>
  800acc:	10803fcc 	andi	r2,r2,255
  800ad0:	00c00044 	movi	r3,1
  800ad4:	10c22926 	beq	r2,r3,80137c <___vfprintf_internal_r+0xd94>
  800ad8:	00c00084 	movi	r3,2
  800adc:	10c31726 	beq	r2,r3,80173c <___vfprintf_internal_r+0x1154>
  800ae0:	d8c01e04 	addi	r3,sp,120
  800ae4:	9808d0fa 	srli	r4,r19,3
  800ae8:	e00a977a 	slli	r5,fp,29
  800aec:	e038d0fa 	srli	fp,fp,3
  800af0:	9cc001cc 	andi	r19,r19,7
  800af4:	98800c04 	addi	r2,r19,48
  800af8:	18ffffc4 	addi	r3,r3,-1
  800afc:	2926b03a 	or	r19,r5,r4
  800b00:	18800005 	stb	r2,0(r3)
  800b04:	9f08b03a 	or	r4,r19,fp
  800b08:	203ff61e 	bne	r4,zero,800ae4 <__alt_data_end+0xff800ae4>
  800b0c:	8900004c 	andi	r4,r17,1
  800b10:	d8c03115 	stw	r3,196(sp)
  800b14:	2003931e 	bne	r4,zero,801964 <___vfprintf_internal_r+0x137c>
  800b18:	dac02817 	ldw	r11,160(sp)
  800b1c:	58e5c83a 	sub	r18,r11,r3
  800b20:	9005883a 	mov	r2,r18
  800b24:	9240010e 	bge	r18,r9,800b2c <___vfprintf_internal_r+0x544>
  800b28:	4805883a 	mov	r2,r9
  800b2c:	d8802b15 	stw	r2,172(sp)
  800b30:	d8003415 	stw	zero,208(sp)
  800b34:	a8803fcc 	andi	r2,r21,255
  800b38:	1080201c 	xori	r2,r2,128
  800b3c:	10bfe004 	addi	r2,r2,-128
  800b40:	10000326 	beq	r2,zero,800b50 <___vfprintf_internal_r+0x568>
  800b44:	db002b17 	ldw	r12,172(sp)
  800b48:	63000044 	addi	r12,r12,1
  800b4c:	db002b15 	stw	r12,172(sp)
  800b50:	88c0008c 	andi	r3,r17,2
  800b54:	d8c02c15 	stw	r3,176(sp)
  800b58:	18000326 	beq	r3,zero,800b68 <___vfprintf_internal_r+0x580>
  800b5c:	dac02b17 	ldw	r11,172(sp)
  800b60:	5ac00084 	addi	r11,r11,2
  800b64:	dac02b15 	stw	r11,172(sp)
  800b68:	8b00210c 	andi	r12,r17,132
  800b6c:	db003015 	stw	r12,192(sp)
  800b70:	6001da1e 	bne	r12,zero,8012dc <___vfprintf_internal_r+0xcf4>
  800b74:	dac02e17 	ldw	r11,184(sp)
  800b78:	db002b17 	ldw	r12,172(sp)
  800b7c:	5b39c83a 	sub	fp,r11,r12
  800b80:	0701d60e 	bge	zero,fp,8012dc <___vfprintf_internal_r+0xcf4>
  800b84:	02400404 	movi	r9,16
  800b88:	d8c02017 	ldw	r3,128(sp)
  800b8c:	d8801f17 	ldw	r2,124(sp)
  800b90:	4f053c0e 	bge	r9,fp,802084 <___vfprintf_internal_r+0x1a9c>
  800b94:	01402074 	movhi	r5,129
  800b98:	29428284 	addi	r5,r5,2570
  800b9c:	d9403615 	stw	r5,216(sp)
  800ba0:	482b883a 	mov	r21,r9
  800ba4:	04c001c4 	movi	r19,7
  800ba8:	00000306 	br	800bb8 <___vfprintf_internal_r+0x5d0>
  800bac:	e73ffc04 	addi	fp,fp,-16
  800bb0:	42000204 	addi	r8,r8,8
  800bb4:	af00130e 	bge	r21,fp,800c04 <___vfprintf_internal_r+0x61c>
  800bb8:	02c02074 	movhi	r11,129
  800bbc:	18c00404 	addi	r3,r3,16
  800bc0:	10800044 	addi	r2,r2,1
  800bc4:	5ac28284 	addi	r11,r11,2570
  800bc8:	42c00015 	stw	r11,0(r8)
  800bcc:	45400115 	stw	r21,4(r8)
  800bd0:	d8c02015 	stw	r3,128(sp)
  800bd4:	d8801f15 	stw	r2,124(sp)
  800bd8:	98bff40e 	bge	r19,r2,800bac <__alt_data_end+0xff800bac>
  800bdc:	b009883a 	mov	r4,r22
  800be0:	b80b883a 	mov	r5,r23
  800be4:	d9801e04 	addi	r6,sp,120
  800be8:	0806dc40 	call	806dc4 <__sprint_r>
  800bec:	103f721e 	bne	r2,zero,8009b8 <__alt_data_end+0xff8009b8>
  800bf0:	e73ffc04 	addi	fp,fp,-16
  800bf4:	d8c02017 	ldw	r3,128(sp)
  800bf8:	d8801f17 	ldw	r2,124(sp)
  800bfc:	da000404 	addi	r8,sp,16
  800c00:	af3fed16 	blt	r21,fp,800bb8 <__alt_data_end+0xff800bb8>
  800c04:	db003617 	ldw	r12,216(sp)
  800c08:	e0c7883a 	add	r3,fp,r3
  800c0c:	10800044 	addi	r2,r2,1
  800c10:	43000015 	stw	r12,0(r8)
  800c14:	47000115 	stw	fp,4(r8)
  800c18:	d8c02015 	stw	r3,128(sp)
  800c1c:	d8801f15 	stw	r2,124(sp)
  800c20:	010001c4 	movi	r4,7
  800c24:	20830e16 	blt	r4,r2,801860 <___vfprintf_internal_r+0x1278>
  800c28:	d8802787 	ldb	r2,158(sp)
  800c2c:	42000204 	addi	r8,r8,8
  800c30:	10000c26 	beq	r2,zero,800c64 <___vfprintf_internal_r+0x67c>
  800c34:	d8801f17 	ldw	r2,124(sp)
  800c38:	d9002784 	addi	r4,sp,158
  800c3c:	18c00044 	addi	r3,r3,1
  800c40:	10800044 	addi	r2,r2,1
  800c44:	41000015 	stw	r4,0(r8)
  800c48:	01000044 	movi	r4,1
  800c4c:	41000115 	stw	r4,4(r8)
  800c50:	d8c02015 	stw	r3,128(sp)
  800c54:	d8801f15 	stw	r2,124(sp)
  800c58:	010001c4 	movi	r4,7
  800c5c:	2082a716 	blt	r4,r2,8016fc <___vfprintf_internal_r+0x1114>
  800c60:	42000204 	addi	r8,r8,8
  800c64:	dac02c17 	ldw	r11,176(sp)
  800c68:	58000c26 	beq	r11,zero,800c9c <___vfprintf_internal_r+0x6b4>
  800c6c:	d8801f17 	ldw	r2,124(sp)
  800c70:	d9002704 	addi	r4,sp,156
  800c74:	18c00084 	addi	r3,r3,2
  800c78:	10800044 	addi	r2,r2,1
  800c7c:	41000015 	stw	r4,0(r8)
  800c80:	01000084 	movi	r4,2
  800c84:	41000115 	stw	r4,4(r8)
  800c88:	d8c02015 	stw	r3,128(sp)
  800c8c:	d8801f15 	stw	r2,124(sp)
  800c90:	010001c4 	movi	r4,7
  800c94:	2082a116 	blt	r4,r2,80171c <___vfprintf_internal_r+0x1134>
  800c98:	42000204 	addi	r8,r8,8
  800c9c:	db003017 	ldw	r12,192(sp)
  800ca0:	00802004 	movi	r2,128
  800ca4:	60820326 	beq	r12,r2,8014b4 <___vfprintf_internal_r+0xecc>
  800ca8:	db003217 	ldw	r12,200(sp)
  800cac:	64abc83a 	sub	r21,r12,r18
  800cb0:	0540260e 	bge	zero,r21,800d4c <___vfprintf_internal_r+0x764>
  800cb4:	07000404 	movi	fp,16
  800cb8:	d8801f17 	ldw	r2,124(sp)
  800cbc:	e544570e 	bge	fp,r21,801e1c <___vfprintf_internal_r+0x1834>
  800cc0:	01402074 	movhi	r5,129
  800cc4:	29427e84 	addi	r5,r5,2554
  800cc8:	d9402c15 	stw	r5,176(sp)
  800ccc:	04c001c4 	movi	r19,7
  800cd0:	00000306 	br	800ce0 <___vfprintf_internal_r+0x6f8>
  800cd4:	ad7ffc04 	addi	r21,r21,-16
  800cd8:	42000204 	addi	r8,r8,8
  800cdc:	e540110e 	bge	fp,r21,800d24 <___vfprintf_internal_r+0x73c>
  800ce0:	18c00404 	addi	r3,r3,16
  800ce4:	10800044 	addi	r2,r2,1
  800ce8:	45000015 	stw	r20,0(r8)
  800cec:	47000115 	stw	fp,4(r8)
  800cf0:	d8c02015 	stw	r3,128(sp)
  800cf4:	d8801f15 	stw	r2,124(sp)
  800cf8:	98bff60e 	bge	r19,r2,800cd4 <__alt_data_end+0xff800cd4>
  800cfc:	b009883a 	mov	r4,r22
  800d00:	b80b883a 	mov	r5,r23
  800d04:	d9801e04 	addi	r6,sp,120
  800d08:	0806dc40 	call	806dc4 <__sprint_r>
  800d0c:	103f2a1e 	bne	r2,zero,8009b8 <__alt_data_end+0xff8009b8>
  800d10:	ad7ffc04 	addi	r21,r21,-16
  800d14:	d8c02017 	ldw	r3,128(sp)
  800d18:	d8801f17 	ldw	r2,124(sp)
  800d1c:	da000404 	addi	r8,sp,16
  800d20:	e57fef16 	blt	fp,r21,800ce0 <__alt_data_end+0xff800ce0>
  800d24:	dac02c17 	ldw	r11,176(sp)
  800d28:	1d47883a 	add	r3,r3,r21
  800d2c:	10800044 	addi	r2,r2,1
  800d30:	42c00015 	stw	r11,0(r8)
  800d34:	45400115 	stw	r21,4(r8)
  800d38:	d8c02015 	stw	r3,128(sp)
  800d3c:	d8801f15 	stw	r2,124(sp)
  800d40:	010001c4 	movi	r4,7
  800d44:	20826516 	blt	r4,r2,8016dc <___vfprintf_internal_r+0x10f4>
  800d48:	42000204 	addi	r8,r8,8
  800d4c:	8880400c 	andi	r2,r17,256
  800d50:	1001901e 	bne	r2,zero,801394 <___vfprintf_internal_r+0xdac>
  800d54:	d8801f17 	ldw	r2,124(sp)
  800d58:	db003117 	ldw	r12,196(sp)
  800d5c:	1c87883a 	add	r3,r3,r18
  800d60:	10800044 	addi	r2,r2,1
  800d64:	43000015 	stw	r12,0(r8)
  800d68:	44800115 	stw	r18,4(r8)
  800d6c:	d8c02015 	stw	r3,128(sp)
  800d70:	d8801f15 	stw	r2,124(sp)
  800d74:	010001c4 	movi	r4,7
  800d78:	20824016 	blt	r4,r2,80167c <___vfprintf_internal_r+0x1094>
  800d7c:	42000204 	addi	r8,r8,8
  800d80:	8c40010c 	andi	r17,r17,4
  800d84:	88003126 	beq	r17,zero,800e4c <___vfprintf_internal_r+0x864>
  800d88:	db002e17 	ldw	r12,184(sp)
  800d8c:	dac02b17 	ldw	r11,172(sp)
  800d90:	62e1c83a 	sub	r16,r12,r11
  800d94:	04002d0e 	bge	zero,r16,800e4c <___vfprintf_internal_r+0x864>
  800d98:	04400404 	movi	r17,16
  800d9c:	d8801f17 	ldw	r2,124(sp)
  800da0:	8c05150e 	bge	r17,r16,8021f8 <___vfprintf_internal_r+0x1c10>
  800da4:	01002074 	movhi	r4,129
  800da8:	21028284 	addi	r4,r4,2570
  800dac:	d9003615 	stw	r4,216(sp)
  800db0:	048001c4 	movi	r18,7
  800db4:	00000306 	br	800dc4 <___vfprintf_internal_r+0x7dc>
  800db8:	843ffc04 	addi	r16,r16,-16
  800dbc:	42000204 	addi	r8,r8,8
  800dc0:	8c00130e 	bge	r17,r16,800e10 <___vfprintf_internal_r+0x828>
  800dc4:	01402074 	movhi	r5,129
  800dc8:	18c00404 	addi	r3,r3,16
  800dcc:	10800044 	addi	r2,r2,1
  800dd0:	29428284 	addi	r5,r5,2570
  800dd4:	41400015 	stw	r5,0(r8)
  800dd8:	44400115 	stw	r17,4(r8)
  800ddc:	d8c02015 	stw	r3,128(sp)
  800de0:	d8801f15 	stw	r2,124(sp)
  800de4:	90bff40e 	bge	r18,r2,800db8 <__alt_data_end+0xff800db8>
  800de8:	b009883a 	mov	r4,r22
  800dec:	b80b883a 	mov	r5,r23
  800df0:	d9801e04 	addi	r6,sp,120
  800df4:	0806dc40 	call	806dc4 <__sprint_r>
  800df8:	103eef1e 	bne	r2,zero,8009b8 <__alt_data_end+0xff8009b8>
  800dfc:	843ffc04 	addi	r16,r16,-16
  800e00:	d8c02017 	ldw	r3,128(sp)
  800e04:	d8801f17 	ldw	r2,124(sp)
  800e08:	da000404 	addi	r8,sp,16
  800e0c:	8c3fed16 	blt	r17,r16,800dc4 <__alt_data_end+0xff800dc4>
  800e10:	dac03617 	ldw	r11,216(sp)
  800e14:	1c07883a 	add	r3,r3,r16
  800e18:	10800044 	addi	r2,r2,1
  800e1c:	42c00015 	stw	r11,0(r8)
  800e20:	44000115 	stw	r16,4(r8)
  800e24:	d8c02015 	stw	r3,128(sp)
  800e28:	d8801f15 	stw	r2,124(sp)
  800e2c:	010001c4 	movi	r4,7
  800e30:	2080060e 	bge	r4,r2,800e4c <___vfprintf_internal_r+0x864>
  800e34:	b009883a 	mov	r4,r22
  800e38:	b80b883a 	mov	r5,r23
  800e3c:	d9801e04 	addi	r6,sp,120
  800e40:	0806dc40 	call	806dc4 <__sprint_r>
  800e44:	103edc1e 	bne	r2,zero,8009b8 <__alt_data_end+0xff8009b8>
  800e48:	d8c02017 	ldw	r3,128(sp)
  800e4c:	d8802b17 	ldw	r2,172(sp)
  800e50:	db002e17 	ldw	r12,184(sp)
  800e54:	1300010e 	bge	r2,r12,800e5c <___vfprintf_internal_r+0x874>
  800e58:	6005883a 	mov	r2,r12
  800e5c:	dac02f17 	ldw	r11,188(sp)
  800e60:	5897883a 	add	r11,r11,r2
  800e64:	dac02f15 	stw	r11,188(sp)
  800e68:	18020c1e 	bne	r3,zero,80169c <___vfprintf_internal_r+0x10b4>
  800e6c:	d8001f15 	stw	zero,124(sp)
  800e70:	da000404 	addi	r8,sp,16
  800e74:	003e1706 	br	8006d4 <__alt_data_end+0xff8006d4>
  800e78:	8c400414 	ori	r17,r17,16
  800e7c:	d8c02a15 	stw	r3,168(sp)
  800e80:	8880080c 	andi	r2,r17,32
  800e84:	10010126 	beq	r2,zero,80128c <___vfprintf_internal_r+0xca4>
  800e88:	db002d17 	ldw	r12,180(sp)
  800e8c:	0005883a 	mov	r2,zero
  800e90:	64c00017 	ldw	r19,0(r12)
  800e94:	67000117 	ldw	fp,4(r12)
  800e98:	63000204 	addi	r12,r12,8
  800e9c:	db002d15 	stw	r12,180(sp)
  800ea0:	9f06b03a 	or	r3,r19,fp
  800ea4:	d8002785 	stb	zero,158(sp)
  800ea8:	da403215 	stw	r9,200(sp)
  800eac:	002b883a 	mov	r21,zero
  800eb0:	003f0106 	br	800ab8 <__alt_data_end+0xff800ab8>
  800eb4:	8c400414 	ori	r17,r17,16
  800eb8:	d8c02a15 	stw	r3,168(sp)
  800ebc:	8880080c 	andi	r2,r17,32
  800ec0:	1000e326 	beq	r2,zero,801250 <___vfprintf_internal_r+0xc68>
  800ec4:	dac02d17 	ldw	r11,180(sp)
  800ec8:	00800044 	movi	r2,1
  800ecc:	5cc00017 	ldw	r19,0(r11)
  800ed0:	5f000117 	ldw	fp,4(r11)
  800ed4:	5ac00204 	addi	r11,r11,8
  800ed8:	dac02d15 	stw	r11,180(sp)
  800edc:	9f06b03a 	or	r3,r19,fp
  800ee0:	003ff006 	br	800ea4 <__alt_data_end+0xff800ea4>
  800ee4:	db002d17 	ldw	r12,180(sp)
  800ee8:	dac02d17 	ldw	r11,180(sp)
  800eec:	d8c02a15 	stw	r3,168(sp)
  800ef0:	63000017 	ldw	r12,0(r12)
  800ef4:	5ac00117 	ldw	r11,4(r11)
  800ef8:	d9802785 	stb	r6,158(sp)
  800efc:	6009883a 	mov	r4,r12
  800f00:	580b883a 	mov	r5,r11
  800f04:	db003715 	stw	r12,220(sp)
  800f08:	da003f15 	stw	r8,252(sp)
  800f0c:	da403e15 	stw	r9,248(sp)
  800f10:	dac03915 	stw	r11,228(sp)
  800f14:	08069880 	call	806988 <__fpclassifyd>
  800f18:	db002d17 	ldw	r12,180(sp)
  800f1c:	04800044 	movi	r18,1
  800f20:	da003f17 	ldw	r8,252(sp)
  800f24:	64c00204 	addi	r19,r12,8
  800f28:	da403e17 	ldw	r9,248(sp)
  800f2c:	d9003717 	ldw	r4,220(sp)
  800f30:	d9403917 	ldw	r5,228(sp)
  800f34:	14832b1e 	bne	r2,r18,801be4 <___vfprintf_internal_r+0x15fc>
  800f38:	000d883a 	mov	r6,zero
  800f3c:	000f883a 	mov	r7,zero
  800f40:	080b5500 	call	80b550 <__ledf2>
  800f44:	da003f17 	ldw	r8,252(sp)
  800f48:	1004b716 	blt	r2,zero,802228 <___vfprintf_internal_r+0x1c40>
  800f4c:	dd402783 	ldbu	r21,158(sp)
  800f50:	008011c4 	movi	r2,71
  800f54:	14040e0e 	bge	r2,r16,801f90 <___vfprintf_internal_r+0x19a8>
  800f58:	00c02074 	movhi	r3,129
  800f5c:	18c26f04 	addi	r3,r3,2492
  800f60:	d8c03115 	stw	r3,196(sp)
  800f64:	02c000c4 	movi	r11,3
  800f68:	00bfdfc4 	movi	r2,-129
  800f6c:	dac02b15 	stw	r11,172(sp)
  800f70:	88a2703a 	and	r17,r17,r2
  800f74:	dcc02d15 	stw	r19,180(sp)
  800f78:	5825883a 	mov	r18,r11
  800f7c:	d8003215 	stw	zero,200(sp)
  800f80:	d8003415 	stw	zero,208(sp)
  800f84:	003eeb06 	br	800b34 <__alt_data_end+0xff800b34>
  800f88:	db002d17 	ldw	r12,180(sp)
  800f8c:	00800c04 	movi	r2,48
  800f90:	d8802705 	stb	r2,156(sp)
  800f94:	64c00017 	ldw	r19,0(r12)
  800f98:	00801e04 	movi	r2,120
  800f9c:	d8802745 	stb	r2,157(sp)
  800fa0:	00802074 	movhi	r2,129
  800fa4:	10827704 	addi	r2,r2,2524
  800fa8:	63000104 	addi	r12,r12,4
  800fac:	d8c02a15 	stw	r3,168(sp)
  800fb0:	d8803b15 	stw	r2,236(sp)
  800fb4:	0039883a 	mov	fp,zero
  800fb8:	8c400094 	ori	r17,r17,2
  800fbc:	db002d15 	stw	r12,180(sp)
  800fc0:	00800084 	movi	r2,2
  800fc4:	04001e04 	movi	r16,120
  800fc8:	9807883a 	mov	r3,r19
  800fcc:	003fb506 	br	800ea4 <__alt_data_end+0xff800ea4>
  800fd0:	8c400214 	ori	r17,r17,8
  800fd4:	1805883a 	mov	r2,r3
  800fd8:	1c000007 	ldb	r16,0(r3)
  800fdc:	003de706 	br	80077c <__alt_data_end+0xff80077c>
  800fe0:	d8c02a15 	stw	r3,168(sp)
  800fe4:	d9802785 	stb	r6,158(sp)
  800fe8:	8880080c 	andi	r2,r17,32
  800fec:	d8c02d17 	ldw	r3,180(sp)
  800ff0:	103ea61e 	bne	r2,zero,800a8c <__alt_data_end+0xff800a8c>
  800ff4:	8880040c 	andi	r2,r17,16
  800ff8:	1002221e 	bne	r2,zero,801884 <___vfprintf_internal_r+0x129c>
  800ffc:	8880100c 	andi	r2,r17,64
  801000:	10022026 	beq	r2,zero,801884 <___vfprintf_internal_r+0x129c>
  801004:	1cc0000f 	ldh	r19,0(r3)
  801008:	db002d17 	ldw	r12,180(sp)
  80100c:	9839d7fa 	srai	fp,r19,31
  801010:	63000104 	addi	r12,r12,4
  801014:	db002d15 	stw	r12,180(sp)
  801018:	e005883a 	mov	r2,fp
  80101c:	003ea106 	br	800aa4 <__alt_data_end+0xff800aa4>
  801020:	8c401014 	ori	r17,r17,64
  801024:	1805883a 	mov	r2,r3
  801028:	1c000007 	ldb	r16,0(r3)
  80102c:	003dd306 	br	80077c <__alt_data_end+0xff80077c>
  801030:	1c000007 	ldb	r16,0(r3)
  801034:	81c3e926 	beq	r16,r7,801fdc <___vfprintf_internal_r+0x19f4>
  801038:	8c400414 	ori	r17,r17,16
  80103c:	1805883a 	mov	r2,r3
  801040:	003dce06 	br	80077c <__alt_data_end+0xff80077c>
  801044:	d8c02a15 	stw	r3,168(sp)
  801048:	d9802785 	stb	r6,158(sp)
  80104c:	8880080c 	andi	r2,r17,32
  801050:	10034726 	beq	r2,zero,801d70 <___vfprintf_internal_r+0x1788>
  801054:	db002d17 	ldw	r12,180(sp)
  801058:	dac02f17 	ldw	r11,188(sp)
  80105c:	60800017 	ldw	r2,0(r12)
  801060:	5807d7fa 	srai	r3,r11,31
  801064:	63000104 	addi	r12,r12,4
  801068:	db002d15 	stw	r12,180(sp)
  80106c:	12c00015 	stw	r11,0(r2)
  801070:	10c00115 	stw	r3,4(r2)
  801074:	003d9706 	br	8006d4 <__alt_data_end+0xff8006d4>
  801078:	03002074 	movhi	r12,129
  80107c:	63027204 	addi	r12,r12,2504
  801080:	d8c02a15 	stw	r3,168(sp)
  801084:	d9802785 	stb	r6,158(sp)
  801088:	db003b15 	stw	r12,236(sp)
  80108c:	88c0080c 	andi	r3,r17,32
  801090:	d8802d17 	ldw	r2,180(sp)
  801094:	18005b26 	beq	r3,zero,801204 <___vfprintf_internal_r+0xc1c>
  801098:	dac02d17 	ldw	r11,180(sp)
  80109c:	14c00017 	ldw	r19,0(r2)
  8010a0:	17000117 	ldw	fp,4(r2)
  8010a4:	5ac00204 	addi	r11,r11,8
  8010a8:	dac02d15 	stw	r11,180(sp)
  8010ac:	8880004c 	andi	r2,r17,1
  8010b0:	10022926 	beq	r2,zero,801958 <___vfprintf_internal_r+0x1370>
  8010b4:	9f06b03a 	or	r3,r19,fp
  8010b8:	18032b26 	beq	r3,zero,801d68 <___vfprintf_internal_r+0x1780>
  8010bc:	00800c04 	movi	r2,48
  8010c0:	d8802705 	stb	r2,156(sp)
  8010c4:	dc002745 	stb	r16,157(sp)
  8010c8:	8c400094 	ori	r17,r17,2
  8010cc:	00800084 	movi	r2,2
  8010d0:	003f7406 	br	800ea4 <__alt_data_end+0xff800ea4>
  8010d4:	30803fcc 	andi	r2,r6,255
  8010d8:	1080201c 	xori	r2,r2,128
  8010dc:	10bfe004 	addi	r2,r2,-128
  8010e0:	1003351e 	bne	r2,zero,801db8 <___vfprintf_internal_r+0x17d0>
  8010e4:	1805883a 	mov	r2,r3
  8010e8:	01800804 	movi	r6,32
  8010ec:	1c000007 	ldb	r16,0(r3)
  8010f0:	003da206 	br	80077c <__alt_data_end+0xff80077c>
  8010f4:	dac02d17 	ldw	r11,180(sp)
  8010f8:	db002d17 	ldw	r12,180(sp)
  8010fc:	5ac00017 	ldw	r11,0(r11)
  801100:	dac02e15 	stw	r11,184(sp)
  801104:	62c00104 	addi	r11,r12,4
  801108:	db002e17 	ldw	r12,184(sp)
  80110c:	6003ad16 	blt	r12,zero,801fc4 <___vfprintf_internal_r+0x19dc>
  801110:	dac02d15 	stw	r11,180(sp)
  801114:	1805883a 	mov	r2,r3
  801118:	1c000007 	ldb	r16,0(r3)
  80111c:	003d9706 	br	80077c <__alt_data_end+0xff80077c>
  801120:	1805883a 	mov	r2,r3
  801124:	01800ac4 	movi	r6,43
  801128:	1c000007 	ldb	r16,0(r3)
  80112c:	003d9306 	br	80077c <__alt_data_end+0xff80077c>
  801130:	db002d17 	ldw	r12,180(sp)
  801134:	d8c02a15 	stw	r3,168(sp)
  801138:	00c00044 	movi	r3,1
  80113c:	60800017 	ldw	r2,0(r12)
  801140:	63000104 	addi	r12,r12,4
  801144:	d8c02b15 	stw	r3,172(sp)
  801148:	d8002785 	stb	zero,158(sp)
  80114c:	d8801405 	stb	r2,80(sp)
  801150:	db002d15 	stw	r12,180(sp)
  801154:	dac01404 	addi	r11,sp,80
  801158:	1825883a 	mov	r18,r3
  80115c:	d8003215 	stw	zero,200(sp)
  801160:	d8003415 	stw	zero,208(sp)
  801164:	dac03115 	stw	r11,196(sp)
  801168:	0005883a 	mov	r2,zero
  80116c:	003e7806 	br	800b50 <__alt_data_end+0xff800b50>
  801170:	dac02d17 	ldw	r11,180(sp)
  801174:	db002d17 	ldw	r12,180(sp)
  801178:	d8c02a15 	stw	r3,168(sp)
  80117c:	5ac00017 	ldw	r11,0(r11)
  801180:	d8002785 	stb	zero,158(sp)
  801184:	64c00104 	addi	r19,r12,4
  801188:	dac03115 	stw	r11,196(sp)
  80118c:	5803fe26 	beq	r11,zero,802188 <___vfprintf_internal_r+0x1ba0>
  801190:	d9003117 	ldw	r4,196(sp)
  801194:	4803b416 	blt	r9,zero,802068 <___vfprintf_internal_r+0x1a80>
  801198:	480d883a 	mov	r6,r9
  80119c:	000b883a 	mov	r5,zero
  8011a0:	da003f15 	stw	r8,252(sp)
  8011a4:	da403e15 	stw	r9,248(sp)
  8011a8:	08056a40 	call	8056a4 <memchr>
  8011ac:	da003f17 	ldw	r8,252(sp)
  8011b0:	da403e17 	ldw	r9,248(sp)
  8011b4:	10043026 	beq	r2,zero,802278 <___vfprintf_internal_r+0x1c90>
  8011b8:	d8c03117 	ldw	r3,196(sp)
  8011bc:	10e5c83a 	sub	r18,r2,r3
  8011c0:	4c836b16 	blt	r9,r18,801f70 <___vfprintf_internal_r+0x1988>
  8011c4:	9005883a 	mov	r2,r18
  8011c8:	9003ac16 	blt	r18,zero,80207c <___vfprintf_internal_r+0x1a94>
  8011cc:	dd402783 	ldbu	r21,158(sp)
  8011d0:	d8802b15 	stw	r2,172(sp)
  8011d4:	dcc02d15 	stw	r19,180(sp)
  8011d8:	d8003215 	stw	zero,200(sp)
  8011dc:	d8003415 	stw	zero,208(sp)
  8011e0:	003e5406 	br	800b34 <__alt_data_end+0xff800b34>
  8011e4:	00802074 	movhi	r2,129
  8011e8:	10827704 	addi	r2,r2,2524
  8011ec:	d8c02a15 	stw	r3,168(sp)
  8011f0:	d8803b15 	stw	r2,236(sp)
  8011f4:	d9802785 	stb	r6,158(sp)
  8011f8:	88c0080c 	andi	r3,r17,32
  8011fc:	d8802d17 	ldw	r2,180(sp)
  801200:	183fa51e 	bne	r3,zero,801098 <__alt_data_end+0xff801098>
  801204:	88c0040c 	andi	r3,r17,16
  801208:	1802ee26 	beq	r3,zero,801dc4 <___vfprintf_internal_r+0x17dc>
  80120c:	db002d17 	ldw	r12,180(sp)
  801210:	14c00017 	ldw	r19,0(r2)
  801214:	0039883a 	mov	fp,zero
  801218:	63000104 	addi	r12,r12,4
  80121c:	db002d15 	stw	r12,180(sp)
  801220:	003fa206 	br	8010ac <__alt_data_end+0xff8010ac>
  801224:	8c400054 	ori	r17,r17,1
  801228:	1805883a 	mov	r2,r3
  80122c:	1c000007 	ldb	r16,0(r3)
  801230:	003d5206 	br	80077c <__alt_data_end+0xff80077c>
  801234:	8c400814 	ori	r17,r17,32
  801238:	1805883a 	mov	r2,r3
  80123c:	1c000007 	ldb	r16,0(r3)
  801240:	003d4e06 	br	80077c <__alt_data_end+0xff80077c>
  801244:	d8c02a15 	stw	r3,168(sp)
  801248:	8880080c 	andi	r2,r17,32
  80124c:	103f1d1e 	bne	r2,zero,800ec4 <__alt_data_end+0xff800ec4>
  801250:	8880040c 	andi	r2,r17,16
  801254:	1001b81e 	bne	r2,zero,801938 <___vfprintf_internal_r+0x1350>
  801258:	8880100c 	andi	r2,r17,64
  80125c:	1001b626 	beq	r2,zero,801938 <___vfprintf_internal_r+0x1350>
  801260:	dac02d17 	ldw	r11,180(sp)
  801264:	0039883a 	mov	fp,zero
  801268:	00800044 	movi	r2,1
  80126c:	5cc0000b 	ldhu	r19,0(r11)
  801270:	5ac00104 	addi	r11,r11,4
  801274:	dac02d15 	stw	r11,180(sp)
  801278:	9807883a 	mov	r3,r19
  80127c:	003f0906 	br	800ea4 <__alt_data_end+0xff800ea4>
  801280:	d8c02a15 	stw	r3,168(sp)
  801284:	8880080c 	andi	r2,r17,32
  801288:	103eff1e 	bne	r2,zero,800e88 <__alt_data_end+0xff800e88>
  80128c:	8880040c 	andi	r2,r17,16
  801290:	1001a11e 	bne	r2,zero,801918 <___vfprintf_internal_r+0x1330>
  801294:	8880100c 	andi	r2,r17,64
  801298:	10019f26 	beq	r2,zero,801918 <___vfprintf_internal_r+0x1330>
  80129c:	db002d17 	ldw	r12,180(sp)
  8012a0:	0039883a 	mov	fp,zero
  8012a4:	0005883a 	mov	r2,zero
  8012a8:	64c0000b 	ldhu	r19,0(r12)
  8012ac:	63000104 	addi	r12,r12,4
  8012b0:	db002d15 	stw	r12,180(sp)
  8012b4:	9807883a 	mov	r3,r19
  8012b8:	003efa06 	br	800ea4 <__alt_data_end+0xff800ea4>
  8012bc:	d8c02a15 	stw	r3,168(sp)
  8012c0:	d9802785 	stb	r6,158(sp)
  8012c4:	803db626 	beq	r16,zero,8009a0 <__alt_data_end+0xff8009a0>
  8012c8:	00c00044 	movi	r3,1
  8012cc:	d8c02b15 	stw	r3,172(sp)
  8012d0:	dc001405 	stb	r16,80(sp)
  8012d4:	d8002785 	stb	zero,158(sp)
  8012d8:	003f9e06 	br	801154 <__alt_data_end+0xff801154>
  8012dc:	d8c02017 	ldw	r3,128(sp)
  8012e0:	003e5306 	br	800c30 <__alt_data_end+0xff800c30>
  8012e4:	10803fcc 	andi	r2,r2,255
  8012e8:	00c00044 	movi	r3,1
  8012ec:	10fdfa1e 	bne	r2,r3,800ad8 <__alt_data_end+0xff800ad8>
  8012f0:	e000021e 	bne	fp,zero,8012fc <___vfprintf_internal_r+0xd14>
  8012f4:	00800244 	movi	r2,9
  8012f8:	14c0202e 	bgeu	r2,r19,80137c <___vfprintf_internal_r+0xd94>
  8012fc:	dc002b15 	stw	r16,172(sp)
  801300:	dc402c15 	stw	r17,176(sp)
  801304:	9821883a 	mov	r16,r19
  801308:	e023883a 	mov	r17,fp
  80130c:	dc801e04 	addi	r18,sp,120
  801310:	4827883a 	mov	r19,r9
  801314:	4039883a 	mov	fp,r8
  801318:	8009883a 	mov	r4,r16
  80131c:	880b883a 	mov	r5,r17
  801320:	01800284 	movi	r6,10
  801324:	000f883a 	mov	r7,zero
  801328:	0809bc80 	call	809bc8 <__umoddi3>
  80132c:	10800c04 	addi	r2,r2,48
  801330:	94bfffc4 	addi	r18,r18,-1
  801334:	8009883a 	mov	r4,r16
  801338:	880b883a 	mov	r5,r17
  80133c:	01800284 	movi	r6,10
  801340:	000f883a 	mov	r7,zero
  801344:	90800005 	stb	r2,0(r18)
  801348:	08096080 	call	809608 <__udivdi3>
  80134c:	1021883a 	mov	r16,r2
  801350:	10c4b03a 	or	r2,r2,r3
  801354:	1823883a 	mov	r17,r3
  801358:	103fef1e 	bne	r2,zero,801318 <__alt_data_end+0xff801318>
  80135c:	dac02817 	ldw	r11,160(sp)
  801360:	dc803115 	stw	r18,196(sp)
  801364:	dc002b17 	ldw	r16,172(sp)
  801368:	dc402c17 	ldw	r17,176(sp)
  80136c:	9813883a 	mov	r9,r19
  801370:	e011883a 	mov	r8,fp
  801374:	5ca5c83a 	sub	r18,r11,r18
  801378:	003de906 	br	800b20 <__alt_data_end+0xff800b20>
  80137c:	9cc00c04 	addi	r19,r19,48
  801380:	d8c01dc4 	addi	r3,sp,119
  801384:	dcc01dc5 	stb	r19,119(sp)
  801388:	dc803c17 	ldw	r18,240(sp)
  80138c:	d8c03115 	stw	r3,196(sp)
  801390:	003de306 	br	800b20 <__alt_data_end+0xff800b20>
  801394:	00801944 	movi	r2,101
  801398:	1400710e 	bge	r2,r16,801560 <___vfprintf_internal_r+0xf78>
  80139c:	d9003717 	ldw	r4,220(sp)
  8013a0:	d9403917 	ldw	r5,228(sp)
  8013a4:	000d883a 	mov	r6,zero
  8013a8:	000f883a 	mov	r7,zero
  8013ac:	d8c03d15 	stw	r3,244(sp)
  8013b0:	da003f15 	stw	r8,252(sp)
  8013b4:	080b3ec0 	call	80b3ec <__eqdf2>
  8013b8:	d8c03d17 	ldw	r3,244(sp)
  8013bc:	da003f17 	ldw	r8,252(sp)
  8013c0:	1000ef1e 	bne	r2,zero,801780 <___vfprintf_internal_r+0x1198>
  8013c4:	d8801f17 	ldw	r2,124(sp)
  8013c8:	01002074 	movhi	r4,129
  8013cc:	21027e04 	addi	r4,r4,2552
  8013d0:	18c00044 	addi	r3,r3,1
  8013d4:	10800044 	addi	r2,r2,1
  8013d8:	41000015 	stw	r4,0(r8)
  8013dc:	01000044 	movi	r4,1
  8013e0:	41000115 	stw	r4,4(r8)
  8013e4:	d8c02015 	stw	r3,128(sp)
  8013e8:	d8801f15 	stw	r2,124(sp)
  8013ec:	010001c4 	movi	r4,7
  8013f0:	20828e16 	blt	r4,r2,801e2c <___vfprintf_internal_r+0x1844>
  8013f4:	42000204 	addi	r8,r8,8
  8013f8:	d8802617 	ldw	r2,152(sp)
  8013fc:	dac03317 	ldw	r11,204(sp)
  801400:	12c00216 	blt	r2,r11,80140c <___vfprintf_internal_r+0xe24>
  801404:	8880004c 	andi	r2,r17,1
  801408:	103e5d26 	beq	r2,zero,800d80 <__alt_data_end+0xff800d80>
  80140c:	db003817 	ldw	r12,224(sp)
  801410:	d8801f17 	ldw	r2,124(sp)
  801414:	dac03517 	ldw	r11,212(sp)
  801418:	1b07883a 	add	r3,r3,r12
  80141c:	10800044 	addi	r2,r2,1
  801420:	42c00015 	stw	r11,0(r8)
  801424:	43000115 	stw	r12,4(r8)
  801428:	d8c02015 	stw	r3,128(sp)
  80142c:	d8801f15 	stw	r2,124(sp)
  801430:	010001c4 	movi	r4,7
  801434:	2082ed16 	blt	r4,r2,801fec <___vfprintf_internal_r+0x1a04>
  801438:	42000204 	addi	r8,r8,8
  80143c:	db003317 	ldw	r12,204(sp)
  801440:	643fffc4 	addi	r16,r12,-1
  801444:	043e4e0e 	bge	zero,r16,800d80 <__alt_data_end+0xff800d80>
  801448:	04800404 	movi	r18,16
  80144c:	d8801f17 	ldw	r2,124(sp)
  801450:	94007e0e 	bge	r18,r16,80164c <___vfprintf_internal_r+0x1064>
  801454:	01402074 	movhi	r5,129
  801458:	29427e84 	addi	r5,r5,2554
  80145c:	d9402c15 	stw	r5,176(sp)
  801460:	054001c4 	movi	r21,7
  801464:	00000306 	br	801474 <___vfprintf_internal_r+0xe8c>
  801468:	42000204 	addi	r8,r8,8
  80146c:	843ffc04 	addi	r16,r16,-16
  801470:	9400790e 	bge	r18,r16,801658 <___vfprintf_internal_r+0x1070>
  801474:	18c00404 	addi	r3,r3,16
  801478:	10800044 	addi	r2,r2,1
  80147c:	45000015 	stw	r20,0(r8)
  801480:	44800115 	stw	r18,4(r8)
  801484:	d8c02015 	stw	r3,128(sp)
  801488:	d8801f15 	stw	r2,124(sp)
  80148c:	a8bff60e 	bge	r21,r2,801468 <__alt_data_end+0xff801468>
  801490:	b009883a 	mov	r4,r22
  801494:	b80b883a 	mov	r5,r23
  801498:	d9801e04 	addi	r6,sp,120
  80149c:	0806dc40 	call	806dc4 <__sprint_r>
  8014a0:	103d451e 	bne	r2,zero,8009b8 <__alt_data_end+0xff8009b8>
  8014a4:	d8c02017 	ldw	r3,128(sp)
  8014a8:	d8801f17 	ldw	r2,124(sp)
  8014ac:	da000404 	addi	r8,sp,16
  8014b0:	003fee06 	br	80146c <__alt_data_end+0xff80146c>
  8014b4:	dac02e17 	ldw	r11,184(sp)
  8014b8:	db002b17 	ldw	r12,172(sp)
  8014bc:	5b2bc83a 	sub	r21,r11,r12
  8014c0:	057df90e 	bge	zero,r21,800ca8 <__alt_data_end+0xff800ca8>
  8014c4:	07000404 	movi	fp,16
  8014c8:	d8801f17 	ldw	r2,124(sp)
  8014cc:	e543640e 	bge	fp,r21,802260 <___vfprintf_internal_r+0x1c78>
  8014d0:	01402074 	movhi	r5,129
  8014d4:	29427e84 	addi	r5,r5,2554
  8014d8:	d9402c15 	stw	r5,176(sp)
  8014dc:	04c001c4 	movi	r19,7
  8014e0:	00000306 	br	8014f0 <___vfprintf_internal_r+0xf08>
  8014e4:	ad7ffc04 	addi	r21,r21,-16
  8014e8:	42000204 	addi	r8,r8,8
  8014ec:	e540110e 	bge	fp,r21,801534 <___vfprintf_internal_r+0xf4c>
  8014f0:	18c00404 	addi	r3,r3,16
  8014f4:	10800044 	addi	r2,r2,1
  8014f8:	45000015 	stw	r20,0(r8)
  8014fc:	47000115 	stw	fp,4(r8)
  801500:	d8c02015 	stw	r3,128(sp)
  801504:	d8801f15 	stw	r2,124(sp)
  801508:	98bff60e 	bge	r19,r2,8014e4 <__alt_data_end+0xff8014e4>
  80150c:	b009883a 	mov	r4,r22
  801510:	b80b883a 	mov	r5,r23
  801514:	d9801e04 	addi	r6,sp,120
  801518:	0806dc40 	call	806dc4 <__sprint_r>
  80151c:	103d261e 	bne	r2,zero,8009b8 <__alt_data_end+0xff8009b8>
  801520:	ad7ffc04 	addi	r21,r21,-16
  801524:	d8c02017 	ldw	r3,128(sp)
  801528:	d8801f17 	ldw	r2,124(sp)
  80152c:	da000404 	addi	r8,sp,16
  801530:	e57fef16 	blt	fp,r21,8014f0 <__alt_data_end+0xff8014f0>
  801534:	dac02c17 	ldw	r11,176(sp)
  801538:	1d47883a 	add	r3,r3,r21
  80153c:	10800044 	addi	r2,r2,1
  801540:	42c00015 	stw	r11,0(r8)
  801544:	45400115 	stw	r21,4(r8)
  801548:	d8c02015 	stw	r3,128(sp)
  80154c:	d8801f15 	stw	r2,124(sp)
  801550:	010001c4 	movi	r4,7
  801554:	20819116 	blt	r4,r2,801b9c <___vfprintf_internal_r+0x15b4>
  801558:	42000204 	addi	r8,r8,8
  80155c:	003dd206 	br	800ca8 <__alt_data_end+0xff800ca8>
  801560:	db003317 	ldw	r12,204(sp)
  801564:	00800044 	movi	r2,1
  801568:	18c00044 	addi	r3,r3,1
  80156c:	1301530e 	bge	r2,r12,801abc <___vfprintf_internal_r+0x14d4>
  801570:	dc001f17 	ldw	r16,124(sp)
  801574:	dac03117 	ldw	r11,196(sp)
  801578:	00800044 	movi	r2,1
  80157c:	84000044 	addi	r16,r16,1
  801580:	40800115 	stw	r2,4(r8)
  801584:	42c00015 	stw	r11,0(r8)
  801588:	d8c02015 	stw	r3,128(sp)
  80158c:	dc001f15 	stw	r16,124(sp)
  801590:	008001c4 	movi	r2,7
  801594:	14016b16 	blt	r2,r16,801b44 <___vfprintf_internal_r+0x155c>
  801598:	42000204 	addi	r8,r8,8
  80159c:	db003817 	ldw	r12,224(sp)
  8015a0:	dac03517 	ldw	r11,212(sp)
  8015a4:	84000044 	addi	r16,r16,1
  8015a8:	1b07883a 	add	r3,r3,r12
  8015ac:	42c00015 	stw	r11,0(r8)
  8015b0:	43000115 	stw	r12,4(r8)
  8015b4:	d8c02015 	stw	r3,128(sp)
  8015b8:	dc001f15 	stw	r16,124(sp)
  8015bc:	008001c4 	movi	r2,7
  8015c0:	14016916 	blt	r2,r16,801b68 <___vfprintf_internal_r+0x1580>
  8015c4:	44800204 	addi	r18,r8,8
  8015c8:	d9003717 	ldw	r4,220(sp)
  8015cc:	d9403917 	ldw	r5,228(sp)
  8015d0:	000d883a 	mov	r6,zero
  8015d4:	000f883a 	mov	r7,zero
  8015d8:	d8c03d15 	stw	r3,244(sp)
  8015dc:	080b3ec0 	call	80b3ec <__eqdf2>
  8015e0:	d8c03d17 	ldw	r3,244(sp)
  8015e4:	db003317 	ldw	r12,204(sp)
  8015e8:	1000ad26 	beq	r2,zero,8018a0 <___vfprintf_internal_r+0x12b8>
  8015ec:	dac03117 	ldw	r11,196(sp)
  8015f0:	60bfffc4 	addi	r2,r12,-1
  8015f4:	1887883a 	add	r3,r3,r2
  8015f8:	59000044 	addi	r4,r11,1
  8015fc:	84000044 	addi	r16,r16,1
  801600:	90800115 	stw	r2,4(r18)
  801604:	91000015 	stw	r4,0(r18)
  801608:	d8c02015 	stw	r3,128(sp)
  80160c:	dc001f15 	stw	r16,124(sp)
  801610:	008001c4 	movi	r2,7
  801614:	14014216 	blt	r2,r16,801b20 <___vfprintf_internal_r+0x1538>
  801618:	94800204 	addi	r18,r18,8
  80161c:	dac03a17 	ldw	r11,232(sp)
  801620:	dd4022c4 	addi	r21,sp,139
  801624:	84000044 	addi	r16,r16,1
  801628:	1ac7883a 	add	r3,r3,r11
  80162c:	95400015 	stw	r21,0(r18)
  801630:	92c00115 	stw	r11,4(r18)
  801634:	d8c02015 	stw	r3,128(sp)
  801638:	dc001f15 	stw	r16,124(sp)
  80163c:	008001c4 	movi	r2,7
  801640:	14000e16 	blt	r2,r16,80167c <___vfprintf_internal_r+0x1094>
  801644:	92000204 	addi	r8,r18,8
  801648:	003dcd06 	br	800d80 <__alt_data_end+0xff800d80>
  80164c:	01002074 	movhi	r4,129
  801650:	21027e84 	addi	r4,r4,2554
  801654:	d9002c15 	stw	r4,176(sp)
  801658:	dac02c17 	ldw	r11,176(sp)
  80165c:	1c07883a 	add	r3,r3,r16
  801660:	44000115 	stw	r16,4(r8)
  801664:	42c00015 	stw	r11,0(r8)
  801668:	10800044 	addi	r2,r2,1
  80166c:	d8c02015 	stw	r3,128(sp)
  801670:	d8801f15 	stw	r2,124(sp)
  801674:	010001c4 	movi	r4,7
  801678:	20bdc00e 	bge	r4,r2,800d7c <__alt_data_end+0xff800d7c>
  80167c:	b009883a 	mov	r4,r22
  801680:	b80b883a 	mov	r5,r23
  801684:	d9801e04 	addi	r6,sp,120
  801688:	0806dc40 	call	806dc4 <__sprint_r>
  80168c:	103cca1e 	bne	r2,zero,8009b8 <__alt_data_end+0xff8009b8>
  801690:	d8c02017 	ldw	r3,128(sp)
  801694:	da000404 	addi	r8,sp,16
  801698:	003db906 	br	800d80 <__alt_data_end+0xff800d80>
  80169c:	b009883a 	mov	r4,r22
  8016a0:	b80b883a 	mov	r5,r23
  8016a4:	d9801e04 	addi	r6,sp,120
  8016a8:	0806dc40 	call	806dc4 <__sprint_r>
  8016ac:	103def26 	beq	r2,zero,800e6c <__alt_data_end+0xff800e6c>
  8016b0:	003cc106 	br	8009b8 <__alt_data_end+0xff8009b8>
  8016b4:	10803fcc 	andi	r2,r2,255
  8016b8:	1000651e 	bne	r2,zero,801850 <___vfprintf_internal_r+0x1268>
  8016bc:	8880004c 	andi	r2,r17,1
  8016c0:	10013226 	beq	r2,zero,801b8c <___vfprintf_internal_r+0x15a4>
  8016c4:	00800c04 	movi	r2,48
  8016c8:	d8c01dc4 	addi	r3,sp,119
  8016cc:	d8801dc5 	stb	r2,119(sp)
  8016d0:	dc803c17 	ldw	r18,240(sp)
  8016d4:	d8c03115 	stw	r3,196(sp)
  8016d8:	003d1106 	br	800b20 <__alt_data_end+0xff800b20>
  8016dc:	b009883a 	mov	r4,r22
  8016e0:	b80b883a 	mov	r5,r23
  8016e4:	d9801e04 	addi	r6,sp,120
  8016e8:	0806dc40 	call	806dc4 <__sprint_r>
  8016ec:	103cb21e 	bne	r2,zero,8009b8 <__alt_data_end+0xff8009b8>
  8016f0:	d8c02017 	ldw	r3,128(sp)
  8016f4:	da000404 	addi	r8,sp,16
  8016f8:	003d9406 	br	800d4c <__alt_data_end+0xff800d4c>
  8016fc:	b009883a 	mov	r4,r22
  801700:	b80b883a 	mov	r5,r23
  801704:	d9801e04 	addi	r6,sp,120
  801708:	0806dc40 	call	806dc4 <__sprint_r>
  80170c:	103caa1e 	bne	r2,zero,8009b8 <__alt_data_end+0xff8009b8>
  801710:	d8c02017 	ldw	r3,128(sp)
  801714:	da000404 	addi	r8,sp,16
  801718:	003d5206 	br	800c64 <__alt_data_end+0xff800c64>
  80171c:	b009883a 	mov	r4,r22
  801720:	b80b883a 	mov	r5,r23
  801724:	d9801e04 	addi	r6,sp,120
  801728:	0806dc40 	call	806dc4 <__sprint_r>
  80172c:	103ca21e 	bne	r2,zero,8009b8 <__alt_data_end+0xff8009b8>
  801730:	d8c02017 	ldw	r3,128(sp)
  801734:	da000404 	addi	r8,sp,16
  801738:	003d5806 	br	800c9c <__alt_data_end+0xff800c9c>
  80173c:	d9403b17 	ldw	r5,236(sp)
  801740:	d8c01e04 	addi	r3,sp,120
  801744:	988003cc 	andi	r2,r19,15
  801748:	e008973a 	slli	r4,fp,28
  80174c:	2885883a 	add	r2,r5,r2
  801750:	9826d13a 	srli	r19,r19,4
  801754:	10800003 	ldbu	r2,0(r2)
  801758:	e038d13a 	srli	fp,fp,4
  80175c:	18ffffc4 	addi	r3,r3,-1
  801760:	24e6b03a 	or	r19,r4,r19
  801764:	18800005 	stb	r2,0(r3)
  801768:	9f04b03a 	or	r2,r19,fp
  80176c:	103ff51e 	bne	r2,zero,801744 <__alt_data_end+0xff801744>
  801770:	db002817 	ldw	r12,160(sp)
  801774:	d8c03115 	stw	r3,196(sp)
  801778:	60e5c83a 	sub	r18,r12,r3
  80177c:	003ce806 	br	800b20 <__alt_data_end+0xff800b20>
  801780:	dc002617 	ldw	r16,152(sp)
  801784:	0401b10e 	bge	zero,r16,801e4c <___vfprintf_internal_r+0x1864>
  801788:	db003117 	ldw	r12,196(sp)
  80178c:	dac03317 	ldw	r11,204(sp)
  801790:	62e1883a 	add	r16,r12,r11
  801794:	db003417 	ldw	r12,208(sp)
  801798:	5825883a 	mov	r18,r11
  80179c:	62c0010e 	bge	r12,r11,8017a4 <___vfprintf_internal_r+0x11bc>
  8017a0:	6025883a 	mov	r18,r12
  8017a4:	04800b0e 	bge	zero,r18,8017d4 <___vfprintf_internal_r+0x11ec>
  8017a8:	d8801f17 	ldw	r2,124(sp)
  8017ac:	dac03117 	ldw	r11,196(sp)
  8017b0:	1c87883a 	add	r3,r3,r18
  8017b4:	10800044 	addi	r2,r2,1
  8017b8:	42c00015 	stw	r11,0(r8)
  8017bc:	44800115 	stw	r18,4(r8)
  8017c0:	d8c02015 	stw	r3,128(sp)
  8017c4:	d8801f15 	stw	r2,124(sp)
  8017c8:	010001c4 	movi	r4,7
  8017cc:	20824f16 	blt	r4,r2,80210c <___vfprintf_internal_r+0x1b24>
  8017d0:	42000204 	addi	r8,r8,8
  8017d4:	90024b16 	blt	r18,zero,802104 <___vfprintf_internal_r+0x1b1c>
  8017d8:	db003417 	ldw	r12,208(sp)
  8017dc:	64a5c83a 	sub	r18,r12,r18
  8017e0:	0480730e 	bge	zero,r18,8019b0 <___vfprintf_internal_r+0x13c8>
  8017e4:	05400404 	movi	r21,16
  8017e8:	d8801f17 	ldw	r2,124(sp)
  8017ec:	ac817d0e 	bge	r21,r18,801de4 <___vfprintf_internal_r+0x17fc>
  8017f0:	01402074 	movhi	r5,129
  8017f4:	29427e84 	addi	r5,r5,2554
  8017f8:	d9402c15 	stw	r5,176(sp)
  8017fc:	070001c4 	movi	fp,7
  801800:	00000306 	br	801810 <___vfprintf_internal_r+0x1228>
  801804:	42000204 	addi	r8,r8,8
  801808:	94bffc04 	addi	r18,r18,-16
  80180c:	ac81780e 	bge	r21,r18,801df0 <___vfprintf_internal_r+0x1808>
  801810:	18c00404 	addi	r3,r3,16
  801814:	10800044 	addi	r2,r2,1
  801818:	45000015 	stw	r20,0(r8)
  80181c:	45400115 	stw	r21,4(r8)
  801820:	d8c02015 	stw	r3,128(sp)
  801824:	d8801f15 	stw	r2,124(sp)
  801828:	e0bff60e 	bge	fp,r2,801804 <__alt_data_end+0xff801804>
  80182c:	b009883a 	mov	r4,r22
  801830:	b80b883a 	mov	r5,r23
  801834:	d9801e04 	addi	r6,sp,120
  801838:	0806dc40 	call	806dc4 <__sprint_r>
  80183c:	103c5e1e 	bne	r2,zero,8009b8 <__alt_data_end+0xff8009b8>
  801840:	d8c02017 	ldw	r3,128(sp)
  801844:	d8801f17 	ldw	r2,124(sp)
  801848:	da000404 	addi	r8,sp,16
  80184c:	003fee06 	br	801808 <__alt_data_end+0xff801808>
  801850:	dac01e04 	addi	r11,sp,120
  801854:	0025883a 	mov	r18,zero
  801858:	dac03115 	stw	r11,196(sp)
  80185c:	003cb006 	br	800b20 <__alt_data_end+0xff800b20>
  801860:	b009883a 	mov	r4,r22
  801864:	b80b883a 	mov	r5,r23
  801868:	d9801e04 	addi	r6,sp,120
  80186c:	0806dc40 	call	806dc4 <__sprint_r>
  801870:	103c511e 	bne	r2,zero,8009b8 <__alt_data_end+0xff8009b8>
  801874:	d8c02017 	ldw	r3,128(sp)
  801878:	d8802787 	ldb	r2,158(sp)
  80187c:	da000404 	addi	r8,sp,16
  801880:	003ceb06 	br	800c30 <__alt_data_end+0xff800c30>
  801884:	1cc00017 	ldw	r19,0(r3)
  801888:	dac02d17 	ldw	r11,180(sp)
  80188c:	9839d7fa 	srai	fp,r19,31
  801890:	5ac00104 	addi	r11,r11,4
  801894:	dac02d15 	stw	r11,180(sp)
  801898:	e005883a 	mov	r2,fp
  80189c:	003c8106 	br	800aa4 <__alt_data_end+0xff800aa4>
  8018a0:	657fffc4 	addi	r21,r12,-1
  8018a4:	057f5d0e 	bge	zero,r21,80161c <__alt_data_end+0xff80161c>
  8018a8:	07000404 	movi	fp,16
  8018ac:	e540900e 	bge	fp,r21,801af0 <___vfprintf_internal_r+0x1508>
  8018b0:	01002074 	movhi	r4,129
  8018b4:	21027e84 	addi	r4,r4,2554
  8018b8:	d9002c15 	stw	r4,176(sp)
  8018bc:	01c001c4 	movi	r7,7
  8018c0:	00000306 	br	8018d0 <___vfprintf_internal_r+0x12e8>
  8018c4:	94800204 	addi	r18,r18,8
  8018c8:	ad7ffc04 	addi	r21,r21,-16
  8018cc:	e5408b0e 	bge	fp,r21,801afc <___vfprintf_internal_r+0x1514>
  8018d0:	18c00404 	addi	r3,r3,16
  8018d4:	84000044 	addi	r16,r16,1
  8018d8:	95000015 	stw	r20,0(r18)
  8018dc:	97000115 	stw	fp,4(r18)
  8018e0:	d8c02015 	stw	r3,128(sp)
  8018e4:	dc001f15 	stw	r16,124(sp)
  8018e8:	3c3ff60e 	bge	r7,r16,8018c4 <__alt_data_end+0xff8018c4>
  8018ec:	b009883a 	mov	r4,r22
  8018f0:	b80b883a 	mov	r5,r23
  8018f4:	d9801e04 	addi	r6,sp,120
  8018f8:	d9c03d15 	stw	r7,244(sp)
  8018fc:	0806dc40 	call	806dc4 <__sprint_r>
  801900:	d9c03d17 	ldw	r7,244(sp)
  801904:	103c2c1e 	bne	r2,zero,8009b8 <__alt_data_end+0xff8009b8>
  801908:	d8c02017 	ldw	r3,128(sp)
  80190c:	dc001f17 	ldw	r16,124(sp)
  801910:	dc800404 	addi	r18,sp,16
  801914:	003fec06 	br	8018c8 <__alt_data_end+0xff8018c8>
  801918:	dac02d17 	ldw	r11,180(sp)
  80191c:	0039883a 	mov	fp,zero
  801920:	0005883a 	mov	r2,zero
  801924:	5cc00017 	ldw	r19,0(r11)
  801928:	5ac00104 	addi	r11,r11,4
  80192c:	dac02d15 	stw	r11,180(sp)
  801930:	9807883a 	mov	r3,r19
  801934:	003d5b06 	br	800ea4 <__alt_data_end+0xff800ea4>
  801938:	db002d17 	ldw	r12,180(sp)
  80193c:	0039883a 	mov	fp,zero
  801940:	00800044 	movi	r2,1
  801944:	64c00017 	ldw	r19,0(r12)
  801948:	63000104 	addi	r12,r12,4
  80194c:	db002d15 	stw	r12,180(sp)
  801950:	9807883a 	mov	r3,r19
  801954:	003d5306 	br	800ea4 <__alt_data_end+0xff800ea4>
  801958:	00800084 	movi	r2,2
  80195c:	9f06b03a 	or	r3,r19,fp
  801960:	003d5006 	br	800ea4 <__alt_data_end+0xff800ea4>
  801964:	10803fcc 	andi	r2,r2,255
  801968:	1080201c 	xori	r2,r2,128
  80196c:	10bfe004 	addi	r2,r2,-128
  801970:	01000c04 	movi	r4,48
  801974:	1101a526 	beq	r2,r4,80200c <___vfprintf_internal_r+0x1a24>
  801978:	dac03117 	ldw	r11,196(sp)
  80197c:	db002817 	ldw	r12,160(sp)
  801980:	193fffc5 	stb	r4,-1(r3)
  801984:	5affffc4 	addi	r11,r11,-1
  801988:	dac03115 	stw	r11,196(sp)
  80198c:	62e5c83a 	sub	r18,r12,r11
  801990:	003c6306 	br	800b20 <__alt_data_end+0xff800b20>
  801994:	b009883a 	mov	r4,r22
  801998:	b80b883a 	mov	r5,r23
  80199c:	d9801e04 	addi	r6,sp,120
  8019a0:	0806dc40 	call	806dc4 <__sprint_r>
  8019a4:	103c041e 	bne	r2,zero,8009b8 <__alt_data_end+0xff8009b8>
  8019a8:	d8c02017 	ldw	r3,128(sp)
  8019ac:	da000404 	addi	r8,sp,16
  8019b0:	db003117 	ldw	r12,196(sp)
  8019b4:	dac03417 	ldw	r11,208(sp)
  8019b8:	d8802617 	ldw	r2,152(sp)
  8019bc:	62e5883a 	add	r18,r12,r11
  8019c0:	db003317 	ldw	r12,204(sp)
  8019c4:	13000216 	blt	r2,r12,8019d0 <___vfprintf_internal_r+0x13e8>
  8019c8:	8900004c 	andi	r4,r17,1
  8019cc:	20000c26 	beq	r4,zero,801a00 <___vfprintf_internal_r+0x1418>
  8019d0:	dac03817 	ldw	r11,224(sp)
  8019d4:	d9001f17 	ldw	r4,124(sp)
  8019d8:	db003517 	ldw	r12,212(sp)
  8019dc:	1ac7883a 	add	r3,r3,r11
  8019e0:	21000044 	addi	r4,r4,1
  8019e4:	43000015 	stw	r12,0(r8)
  8019e8:	42c00115 	stw	r11,4(r8)
  8019ec:	d8c02015 	stw	r3,128(sp)
  8019f0:	d9001f15 	stw	r4,124(sp)
  8019f4:	014001c4 	movi	r5,7
  8019f8:	2901cc16 	blt	r5,r4,80212c <___vfprintf_internal_r+0x1b44>
  8019fc:	42000204 	addi	r8,r8,8
  801a00:	dac03317 	ldw	r11,204(sp)
  801a04:	8489c83a 	sub	r4,r16,r18
  801a08:	5885c83a 	sub	r2,r11,r2
  801a0c:	1021883a 	mov	r16,r2
  801a10:	2080010e 	bge	r4,r2,801a18 <___vfprintf_internal_r+0x1430>
  801a14:	2021883a 	mov	r16,r4
  801a18:	04000a0e 	bge	zero,r16,801a44 <___vfprintf_internal_r+0x145c>
  801a1c:	d9001f17 	ldw	r4,124(sp)
  801a20:	1c07883a 	add	r3,r3,r16
  801a24:	44800015 	stw	r18,0(r8)
  801a28:	21000044 	addi	r4,r4,1
  801a2c:	44000115 	stw	r16,4(r8)
  801a30:	d8c02015 	stw	r3,128(sp)
  801a34:	d9001f15 	stw	r4,124(sp)
  801a38:	014001c4 	movi	r5,7
  801a3c:	2901e316 	blt	r5,r4,8021cc <___vfprintf_internal_r+0x1be4>
  801a40:	42000204 	addi	r8,r8,8
  801a44:	8001df16 	blt	r16,zero,8021c4 <___vfprintf_internal_r+0x1bdc>
  801a48:	1421c83a 	sub	r16,r2,r16
  801a4c:	043ccc0e 	bge	zero,r16,800d80 <__alt_data_end+0xff800d80>
  801a50:	04800404 	movi	r18,16
  801a54:	d8801f17 	ldw	r2,124(sp)
  801a58:	943efc0e 	bge	r18,r16,80164c <__alt_data_end+0xff80164c>
  801a5c:	01402074 	movhi	r5,129
  801a60:	29427e84 	addi	r5,r5,2554
  801a64:	d9402c15 	stw	r5,176(sp)
  801a68:	054001c4 	movi	r21,7
  801a6c:	00000306 	br	801a7c <___vfprintf_internal_r+0x1494>
  801a70:	42000204 	addi	r8,r8,8
  801a74:	843ffc04 	addi	r16,r16,-16
  801a78:	943ef70e 	bge	r18,r16,801658 <__alt_data_end+0xff801658>
  801a7c:	18c00404 	addi	r3,r3,16
  801a80:	10800044 	addi	r2,r2,1
  801a84:	45000015 	stw	r20,0(r8)
  801a88:	44800115 	stw	r18,4(r8)
  801a8c:	d8c02015 	stw	r3,128(sp)
  801a90:	d8801f15 	stw	r2,124(sp)
  801a94:	a8bff60e 	bge	r21,r2,801a70 <__alt_data_end+0xff801a70>
  801a98:	b009883a 	mov	r4,r22
  801a9c:	b80b883a 	mov	r5,r23
  801aa0:	d9801e04 	addi	r6,sp,120
  801aa4:	0806dc40 	call	806dc4 <__sprint_r>
  801aa8:	103bc31e 	bne	r2,zero,8009b8 <__alt_data_end+0xff8009b8>
  801aac:	d8c02017 	ldw	r3,128(sp)
  801ab0:	d8801f17 	ldw	r2,124(sp)
  801ab4:	da000404 	addi	r8,sp,16
  801ab8:	003fee06 	br	801a74 <__alt_data_end+0xff801a74>
  801abc:	8888703a 	and	r4,r17,r2
  801ac0:	203eab1e 	bne	r4,zero,801570 <__alt_data_end+0xff801570>
  801ac4:	dc001f17 	ldw	r16,124(sp)
  801ac8:	db003117 	ldw	r12,196(sp)
  801acc:	40800115 	stw	r2,4(r8)
  801ad0:	84000044 	addi	r16,r16,1
  801ad4:	43000015 	stw	r12,0(r8)
  801ad8:	d8c02015 	stw	r3,128(sp)
  801adc:	dc001f15 	stw	r16,124(sp)
  801ae0:	008001c4 	movi	r2,7
  801ae4:	14000e16 	blt	r2,r16,801b20 <___vfprintf_internal_r+0x1538>
  801ae8:	44800204 	addi	r18,r8,8
  801aec:	003ecb06 	br	80161c <__alt_data_end+0xff80161c>
  801af0:	00802074 	movhi	r2,129
  801af4:	10827e84 	addi	r2,r2,2554
  801af8:	d8802c15 	stw	r2,176(sp)
  801afc:	dac02c17 	ldw	r11,176(sp)
  801b00:	1d47883a 	add	r3,r3,r21
  801b04:	84000044 	addi	r16,r16,1
  801b08:	92c00015 	stw	r11,0(r18)
  801b0c:	95400115 	stw	r21,4(r18)
  801b10:	d8c02015 	stw	r3,128(sp)
  801b14:	dc001f15 	stw	r16,124(sp)
  801b18:	008001c4 	movi	r2,7
  801b1c:	143ebe0e 	bge	r2,r16,801618 <__alt_data_end+0xff801618>
  801b20:	b009883a 	mov	r4,r22
  801b24:	b80b883a 	mov	r5,r23
  801b28:	d9801e04 	addi	r6,sp,120
  801b2c:	0806dc40 	call	806dc4 <__sprint_r>
  801b30:	103ba11e 	bne	r2,zero,8009b8 <__alt_data_end+0xff8009b8>
  801b34:	d8c02017 	ldw	r3,128(sp)
  801b38:	dc001f17 	ldw	r16,124(sp)
  801b3c:	dc800404 	addi	r18,sp,16
  801b40:	003eb606 	br	80161c <__alt_data_end+0xff80161c>
  801b44:	b009883a 	mov	r4,r22
  801b48:	b80b883a 	mov	r5,r23
  801b4c:	d9801e04 	addi	r6,sp,120
  801b50:	0806dc40 	call	806dc4 <__sprint_r>
  801b54:	103b981e 	bne	r2,zero,8009b8 <__alt_data_end+0xff8009b8>
  801b58:	d8c02017 	ldw	r3,128(sp)
  801b5c:	dc001f17 	ldw	r16,124(sp)
  801b60:	da000404 	addi	r8,sp,16
  801b64:	003e8d06 	br	80159c <__alt_data_end+0xff80159c>
  801b68:	b009883a 	mov	r4,r22
  801b6c:	b80b883a 	mov	r5,r23
  801b70:	d9801e04 	addi	r6,sp,120
  801b74:	0806dc40 	call	806dc4 <__sprint_r>
  801b78:	103b8f1e 	bne	r2,zero,8009b8 <__alt_data_end+0xff8009b8>
  801b7c:	d8c02017 	ldw	r3,128(sp)
  801b80:	dc001f17 	ldw	r16,124(sp)
  801b84:	dc800404 	addi	r18,sp,16
  801b88:	003e8f06 	br	8015c8 <__alt_data_end+0xff8015c8>
  801b8c:	db001e04 	addi	r12,sp,120
  801b90:	0025883a 	mov	r18,zero
  801b94:	db003115 	stw	r12,196(sp)
  801b98:	003be106 	br	800b20 <__alt_data_end+0xff800b20>
  801b9c:	b009883a 	mov	r4,r22
  801ba0:	b80b883a 	mov	r5,r23
  801ba4:	d9801e04 	addi	r6,sp,120
  801ba8:	0806dc40 	call	806dc4 <__sprint_r>
  801bac:	103b821e 	bne	r2,zero,8009b8 <__alt_data_end+0xff8009b8>
  801bb0:	d8c02017 	ldw	r3,128(sp)
  801bb4:	da000404 	addi	r8,sp,16
  801bb8:	003c3b06 	br	800ca8 <__alt_data_end+0xff800ca8>
  801bbc:	04e7c83a 	sub	r19,zero,r19
  801bc0:	9804c03a 	cmpne	r2,r19,zero
  801bc4:	0739c83a 	sub	fp,zero,fp
  801bc8:	e0b9c83a 	sub	fp,fp,r2
  801bcc:	05400b44 	movi	r21,45
  801bd0:	dd402785 	stb	r21,158(sp)
  801bd4:	da403215 	stw	r9,200(sp)
  801bd8:	00800044 	movi	r2,1
  801bdc:	9f06b03a 	or	r3,r19,fp
  801be0:	003bb506 	br	800ab8 <__alt_data_end+0xff800ab8>
  801be4:	da003f15 	stw	r8,252(sp)
  801be8:	da403e15 	stw	r9,248(sp)
  801bec:	08069880 	call	806988 <__fpclassifyd>
  801bf0:	da003f17 	ldw	r8,252(sp)
  801bf4:	da403e17 	ldw	r9,248(sp)
  801bf8:	1000ce26 	beq	r2,zero,801f34 <___vfprintf_internal_r+0x194c>
  801bfc:	057ff7c4 	movi	r21,-33
  801c00:	00bfffc4 	movi	r2,-1
  801c04:	856a703a 	and	r21,r16,r21
  801c08:	4881e826 	beq	r9,r2,8023ac <___vfprintf_internal_r+0x1dc4>
  801c0c:	008011c4 	movi	r2,71
  801c10:	a881e326 	beq	r21,r2,8023a0 <___vfprintf_internal_r+0x1db8>
  801c14:	db003917 	ldw	r12,228(sp)
  801c18:	8ac04014 	ori	r11,r17,256
  801c1c:	dac02d15 	stw	r11,180(sp)
  801c20:	6001ed16 	blt	r12,zero,8023d8 <___vfprintf_internal_r+0x1df0>
  801c24:	dc803917 	ldw	r18,228(sp)
  801c28:	d8002b05 	stb	zero,172(sp)
  801c2c:	00801984 	movi	r2,102
  801c30:	80811826 	beq	r16,r2,802094 <___vfprintf_internal_r+0x1aac>
  801c34:	00801184 	movi	r2,70
  801c38:	80811626 	beq	r16,r2,802094 <___vfprintf_internal_r+0x1aac>
  801c3c:	00801144 	movi	r2,69
  801c40:	a881e926 	beq	r21,r2,8023e8 <___vfprintf_internal_r+0x1e00>
  801c44:	4839883a 	mov	fp,r9
  801c48:	d8802604 	addi	r2,sp,152
  801c4c:	d8800115 	stw	r2,4(sp)
  801c50:	d9403717 	ldw	r5,220(sp)
  801c54:	d8802504 	addi	r2,sp,148
  801c58:	d8800215 	stw	r2,8(sp)
  801c5c:	d8802104 	addi	r2,sp,132
  801c60:	df000015 	stw	fp,0(sp)
  801c64:	d8800315 	stw	r2,12(sp)
  801c68:	b009883a 	mov	r4,r22
  801c6c:	900d883a 	mov	r6,r18
  801c70:	01c00084 	movi	r7,2
  801c74:	da003f15 	stw	r8,252(sp)
  801c78:	da403e15 	stw	r9,248(sp)
  801c7c:	080296c0 	call	80296c <_dtoa_r>
  801c80:	d8803115 	stw	r2,196(sp)
  801c84:	008019c4 	movi	r2,103
  801c88:	da003f17 	ldw	r8,252(sp)
  801c8c:	da403e17 	ldw	r9,248(sp)
  801c90:	80800226 	beq	r16,r2,801c9c <___vfprintf_internal_r+0x16b4>
  801c94:	008011c4 	movi	r2,71
  801c98:	8081101e 	bne	r16,r2,8020dc <___vfprintf_internal_r+0x1af4>
  801c9c:	8880004c 	andi	r2,r17,1
  801ca0:	1001dd26 	beq	r2,zero,802418 <___vfprintf_internal_r+0x1e30>
  801ca4:	db003117 	ldw	r12,196(sp)
  801ca8:	6715883a 	add	r10,r12,fp
  801cac:	d9003717 	ldw	r4,220(sp)
  801cb0:	900b883a 	mov	r5,r18
  801cb4:	000d883a 	mov	r6,zero
  801cb8:	000f883a 	mov	r7,zero
  801cbc:	da003f15 	stw	r8,252(sp)
  801cc0:	da403e15 	stw	r9,248(sp)
  801cc4:	da803d15 	stw	r10,244(sp)
  801cc8:	080b3ec0 	call	80b3ec <__eqdf2>
  801ccc:	da003f17 	ldw	r8,252(sp)
  801cd0:	da403e17 	ldw	r9,248(sp)
  801cd4:	da803d17 	ldw	r10,244(sp)
  801cd8:	10016526 	beq	r2,zero,802270 <___vfprintf_internal_r+0x1c88>
  801cdc:	d8802117 	ldw	r2,132(sp)
  801ce0:	1280062e 	bgeu	r2,r10,801cfc <___vfprintf_internal_r+0x1714>
  801ce4:	01000c04 	movi	r4,48
  801ce8:	10c00044 	addi	r3,r2,1
  801cec:	d8c02115 	stw	r3,132(sp)
  801cf0:	11000005 	stb	r4,0(r2)
  801cf4:	d8802117 	ldw	r2,132(sp)
  801cf8:	12bffb36 	bltu	r2,r10,801ce8 <__alt_data_end+0xff801ce8>
  801cfc:	db003117 	ldw	r12,196(sp)
  801d00:	1305c83a 	sub	r2,r2,r12
  801d04:	d8803315 	stw	r2,204(sp)
  801d08:	008011c4 	movi	r2,71
  801d0c:	a8814d26 	beq	r21,r2,802244 <___vfprintf_internal_r+0x1c5c>
  801d10:	00801944 	movi	r2,101
  801d14:	1402060e 	bge	r2,r16,802530 <___vfprintf_internal_r+0x1f48>
  801d18:	00801984 	movi	r2,102
  801d1c:	8081b426 	beq	r16,r2,8023f0 <___vfprintf_internal_r+0x1e08>
  801d20:	db002617 	ldw	r12,152(sp)
  801d24:	db003415 	stw	r12,208(sp)
  801d28:	db003417 	ldw	r12,208(sp)
  801d2c:	dac03317 	ldw	r11,204(sp)
  801d30:	62c1a016 	blt	r12,r11,8023b4 <___vfprintf_internal_r+0x1dcc>
  801d34:	8c40004c 	andi	r17,r17,1
  801d38:	8801bf1e 	bne	r17,zero,802438 <___vfprintf_internal_r+0x1e50>
  801d3c:	6005883a 	mov	r2,r12
  801d40:	6001b316 	blt	r12,zero,802410 <___vfprintf_internal_r+0x1e28>
  801d44:	dc803417 	ldw	r18,208(sp)
  801d48:	df002b07 	ldb	fp,172(sp)
  801d4c:	e0012e1e 	bne	fp,zero,802208 <___vfprintf_internal_r+0x1c20>
  801d50:	dc402d17 	ldw	r17,180(sp)
  801d54:	dd402783 	ldbu	r21,158(sp)
  801d58:	d8802b15 	stw	r2,172(sp)
  801d5c:	dcc02d15 	stw	r19,180(sp)
  801d60:	d8003215 	stw	zero,200(sp)
  801d64:	003b7306 	br	800b34 <__alt_data_end+0xff800b34>
  801d68:	00800084 	movi	r2,2
  801d6c:	003c4d06 	br	800ea4 <__alt_data_end+0xff800ea4>
  801d70:	8880040c 	andi	r2,r17,16
  801d74:	1000091e 	bne	r2,zero,801d9c <___vfprintf_internal_r+0x17b4>
  801d78:	8c40100c 	andi	r17,r17,64
  801d7c:	88000726 	beq	r17,zero,801d9c <___vfprintf_internal_r+0x17b4>
  801d80:	db002d17 	ldw	r12,180(sp)
  801d84:	dac02f17 	ldw	r11,188(sp)
  801d88:	60800017 	ldw	r2,0(r12)
  801d8c:	63000104 	addi	r12,r12,4
  801d90:	db002d15 	stw	r12,180(sp)
  801d94:	12c0000d 	sth	r11,0(r2)
  801d98:	003a4e06 	br	8006d4 <__alt_data_end+0xff8006d4>
  801d9c:	db002d17 	ldw	r12,180(sp)
  801da0:	dac02f17 	ldw	r11,188(sp)
  801da4:	60800017 	ldw	r2,0(r12)
  801da8:	63000104 	addi	r12,r12,4
  801dac:	db002d15 	stw	r12,180(sp)
  801db0:	12c00015 	stw	r11,0(r2)
  801db4:	003a4706 	br	8006d4 <__alt_data_end+0xff8006d4>
  801db8:	1c000007 	ldb	r16,0(r3)
  801dbc:	1805883a 	mov	r2,r3
  801dc0:	003a6e06 	br	80077c <__alt_data_end+0xff80077c>
  801dc4:	88c0100c 	andi	r3,r17,64
  801dc8:	18006b26 	beq	r3,zero,801f78 <___vfprintf_internal_r+0x1990>
  801dcc:	dac02d17 	ldw	r11,180(sp)
  801dd0:	14c0000b 	ldhu	r19,0(r2)
  801dd4:	0039883a 	mov	fp,zero
  801dd8:	5ac00104 	addi	r11,r11,4
  801ddc:	dac02d15 	stw	r11,180(sp)
  801de0:	003cb206 	br	8010ac <__alt_data_end+0xff8010ac>
  801de4:	01002074 	movhi	r4,129
  801de8:	21027e84 	addi	r4,r4,2554
  801dec:	d9002c15 	stw	r4,176(sp)
  801df0:	dac02c17 	ldw	r11,176(sp)
  801df4:	1c87883a 	add	r3,r3,r18
  801df8:	10800044 	addi	r2,r2,1
  801dfc:	42c00015 	stw	r11,0(r8)
  801e00:	44800115 	stw	r18,4(r8)
  801e04:	d8c02015 	stw	r3,128(sp)
  801e08:	d8801f15 	stw	r2,124(sp)
  801e0c:	010001c4 	movi	r4,7
  801e10:	20bee016 	blt	r4,r2,801994 <__alt_data_end+0xff801994>
  801e14:	42000204 	addi	r8,r8,8
  801e18:	003ee506 	br	8019b0 <__alt_data_end+0xff8019b0>
  801e1c:	01002074 	movhi	r4,129
  801e20:	21027e84 	addi	r4,r4,2554
  801e24:	d9002c15 	stw	r4,176(sp)
  801e28:	003bbe06 	br	800d24 <__alt_data_end+0xff800d24>
  801e2c:	b009883a 	mov	r4,r22
  801e30:	b80b883a 	mov	r5,r23
  801e34:	d9801e04 	addi	r6,sp,120
  801e38:	0806dc40 	call	806dc4 <__sprint_r>
  801e3c:	103ade1e 	bne	r2,zero,8009b8 <__alt_data_end+0xff8009b8>
  801e40:	d8c02017 	ldw	r3,128(sp)
  801e44:	da000404 	addi	r8,sp,16
  801e48:	003d6b06 	br	8013f8 <__alt_data_end+0xff8013f8>
  801e4c:	d8801f17 	ldw	r2,124(sp)
  801e50:	03002074 	movhi	r12,129
  801e54:	01000044 	movi	r4,1
  801e58:	18c00044 	addi	r3,r3,1
  801e5c:	10800044 	addi	r2,r2,1
  801e60:	63027e04 	addi	r12,r12,2552
  801e64:	41000115 	stw	r4,4(r8)
  801e68:	43000015 	stw	r12,0(r8)
  801e6c:	d8c02015 	stw	r3,128(sp)
  801e70:	d8801f15 	stw	r2,124(sp)
  801e74:	010001c4 	movi	r4,7
  801e78:	20804916 	blt	r4,r2,801fa0 <___vfprintf_internal_r+0x19b8>
  801e7c:	42000204 	addi	r8,r8,8
  801e80:	8000041e 	bne	r16,zero,801e94 <___vfprintf_internal_r+0x18ac>
  801e84:	dac03317 	ldw	r11,204(sp)
  801e88:	5800021e 	bne	r11,zero,801e94 <___vfprintf_internal_r+0x18ac>
  801e8c:	8880004c 	andi	r2,r17,1
  801e90:	103bbb26 	beq	r2,zero,800d80 <__alt_data_end+0xff800d80>
  801e94:	db003817 	ldw	r12,224(sp)
  801e98:	d8801f17 	ldw	r2,124(sp)
  801e9c:	dac03517 	ldw	r11,212(sp)
  801ea0:	1b07883a 	add	r3,r3,r12
  801ea4:	10800044 	addi	r2,r2,1
  801ea8:	42c00015 	stw	r11,0(r8)
  801eac:	43000115 	stw	r12,4(r8)
  801eb0:	d8c02015 	stw	r3,128(sp)
  801eb4:	d8801f15 	stw	r2,124(sp)
  801eb8:	010001c4 	movi	r4,7
  801ebc:	20812e16 	blt	r4,r2,802378 <___vfprintf_internal_r+0x1d90>
  801ec0:	42000204 	addi	r8,r8,8
  801ec4:	0421c83a 	sub	r16,zero,r16
  801ec8:	04005c0e 	bge	zero,r16,80203c <___vfprintf_internal_r+0x1a54>
  801ecc:	04800404 	movi	r18,16
  801ed0:	94009f0e 	bge	r18,r16,802150 <___vfprintf_internal_r+0x1b68>
  801ed4:	01002074 	movhi	r4,129
  801ed8:	21027e84 	addi	r4,r4,2554
  801edc:	d9002c15 	stw	r4,176(sp)
  801ee0:	054001c4 	movi	r21,7
  801ee4:	00000306 	br	801ef4 <___vfprintf_internal_r+0x190c>
  801ee8:	42000204 	addi	r8,r8,8
  801eec:	843ffc04 	addi	r16,r16,-16
  801ef0:	94009a0e 	bge	r18,r16,80215c <___vfprintf_internal_r+0x1b74>
  801ef4:	18c00404 	addi	r3,r3,16
  801ef8:	10800044 	addi	r2,r2,1
  801efc:	45000015 	stw	r20,0(r8)
  801f00:	44800115 	stw	r18,4(r8)
  801f04:	d8c02015 	stw	r3,128(sp)
  801f08:	d8801f15 	stw	r2,124(sp)
  801f0c:	a8bff60e 	bge	r21,r2,801ee8 <__alt_data_end+0xff801ee8>
  801f10:	b009883a 	mov	r4,r22
  801f14:	b80b883a 	mov	r5,r23
  801f18:	d9801e04 	addi	r6,sp,120
  801f1c:	0806dc40 	call	806dc4 <__sprint_r>
  801f20:	103aa51e 	bne	r2,zero,8009b8 <__alt_data_end+0xff8009b8>
  801f24:	d8c02017 	ldw	r3,128(sp)
  801f28:	d8801f17 	ldw	r2,124(sp)
  801f2c:	da000404 	addi	r8,sp,16
  801f30:	003fee06 	br	801eec <__alt_data_end+0xff801eec>
  801f34:	008011c4 	movi	r2,71
  801f38:	1400be16 	blt	r2,r16,802234 <___vfprintf_internal_r+0x1c4c>
  801f3c:	03002074 	movhi	r12,129
  801f40:	63027004 	addi	r12,r12,2496
  801f44:	db003115 	stw	r12,196(sp)
  801f48:	00c000c4 	movi	r3,3
  801f4c:	00bfdfc4 	movi	r2,-129
  801f50:	d8c02b15 	stw	r3,172(sp)
  801f54:	88a2703a 	and	r17,r17,r2
  801f58:	dd402783 	ldbu	r21,158(sp)
  801f5c:	dcc02d15 	stw	r19,180(sp)
  801f60:	1825883a 	mov	r18,r3
  801f64:	d8003215 	stw	zero,200(sp)
  801f68:	d8003415 	stw	zero,208(sp)
  801f6c:	003af106 	br	800b34 <__alt_data_end+0xff800b34>
  801f70:	4825883a 	mov	r18,r9
  801f74:	003c9306 	br	8011c4 <__alt_data_end+0xff8011c4>
  801f78:	db002d17 	ldw	r12,180(sp)
  801f7c:	14c00017 	ldw	r19,0(r2)
  801f80:	0039883a 	mov	fp,zero
  801f84:	63000104 	addi	r12,r12,4
  801f88:	db002d15 	stw	r12,180(sp)
  801f8c:	003c4706 	br	8010ac <__alt_data_end+0xff8010ac>
  801f90:	00802074 	movhi	r2,129
  801f94:	10826e04 	addi	r2,r2,2488
  801f98:	d8803115 	stw	r2,196(sp)
  801f9c:	003bf106 	br	800f64 <__alt_data_end+0xff800f64>
  801fa0:	b009883a 	mov	r4,r22
  801fa4:	b80b883a 	mov	r5,r23
  801fa8:	d9801e04 	addi	r6,sp,120
  801fac:	0806dc40 	call	806dc4 <__sprint_r>
  801fb0:	103a811e 	bne	r2,zero,8009b8 <__alt_data_end+0xff8009b8>
  801fb4:	dc002617 	ldw	r16,152(sp)
  801fb8:	d8c02017 	ldw	r3,128(sp)
  801fbc:	da000404 	addi	r8,sp,16
  801fc0:	003faf06 	br	801e80 <__alt_data_end+0xff801e80>
  801fc4:	db002e17 	ldw	r12,184(sp)
  801fc8:	1805883a 	mov	r2,r3
  801fcc:	dac02d15 	stw	r11,180(sp)
  801fd0:	0319c83a 	sub	r12,zero,r12
  801fd4:	db002e15 	stw	r12,184(sp)
  801fd8:	003a8206 	br	8009e4 <__alt_data_end+0xff8009e4>
  801fdc:	18800044 	addi	r2,r3,1
  801fe0:	8c400814 	ori	r17,r17,32
  801fe4:	1c000047 	ldb	r16,1(r3)
  801fe8:	0039e406 	br	80077c <__alt_data_end+0xff80077c>
  801fec:	b009883a 	mov	r4,r22
  801ff0:	b80b883a 	mov	r5,r23
  801ff4:	d9801e04 	addi	r6,sp,120
  801ff8:	0806dc40 	call	806dc4 <__sprint_r>
  801ffc:	103a6e1e 	bne	r2,zero,8009b8 <__alt_data_end+0xff8009b8>
  802000:	d8c02017 	ldw	r3,128(sp)
  802004:	da000404 	addi	r8,sp,16
  802008:	003d0c06 	br	80143c <__alt_data_end+0xff80143c>
  80200c:	db002817 	ldw	r12,160(sp)
  802010:	d8c03117 	ldw	r3,196(sp)
  802014:	60e5c83a 	sub	r18,r12,r3
  802018:	003ac106 	br	800b20 <__alt_data_end+0xff800b20>
  80201c:	b009883a 	mov	r4,r22
  802020:	b80b883a 	mov	r5,r23
  802024:	d9801e04 	addi	r6,sp,120
  802028:	0806dc40 	call	806dc4 <__sprint_r>
  80202c:	103a621e 	bne	r2,zero,8009b8 <__alt_data_end+0xff8009b8>
  802030:	d8c02017 	ldw	r3,128(sp)
  802034:	d8801f17 	ldw	r2,124(sp)
  802038:	da000404 	addi	r8,sp,16
  80203c:	db003317 	ldw	r12,204(sp)
  802040:	dac03117 	ldw	r11,196(sp)
  802044:	10800044 	addi	r2,r2,1
  802048:	1b07883a 	add	r3,r3,r12
  80204c:	42c00015 	stw	r11,0(r8)
  802050:	43000115 	stw	r12,4(r8)
  802054:	d8c02015 	stw	r3,128(sp)
  802058:	d8801f15 	stw	r2,124(sp)
  80205c:	010001c4 	movi	r4,7
  802060:	20bb460e 	bge	r4,r2,800d7c <__alt_data_end+0xff800d7c>
  802064:	003d8506 	br	80167c <__alt_data_end+0xff80167c>
  802068:	da003f15 	stw	r8,252(sp)
  80206c:	0806c300 	call	806c30 <strlen>
  802070:	1025883a 	mov	r18,r2
  802074:	da003f17 	ldw	r8,252(sp)
  802078:	903c540e 	bge	r18,zero,8011cc <__alt_data_end+0xff8011cc>
  80207c:	0005883a 	mov	r2,zero
  802080:	003c5206 	br	8011cc <__alt_data_end+0xff8011cc>
  802084:	01002074 	movhi	r4,129
  802088:	21028284 	addi	r4,r4,2570
  80208c:	d9003615 	stw	r4,216(sp)
  802090:	003adc06 	br	800c04 <__alt_data_end+0xff800c04>
  802094:	d8802604 	addi	r2,sp,152
  802098:	d8800115 	stw	r2,4(sp)
  80209c:	d9403717 	ldw	r5,220(sp)
  8020a0:	d8802504 	addi	r2,sp,148
  8020a4:	d8800215 	stw	r2,8(sp)
  8020a8:	d8802104 	addi	r2,sp,132
  8020ac:	da400015 	stw	r9,0(sp)
  8020b0:	d8800315 	stw	r2,12(sp)
  8020b4:	b009883a 	mov	r4,r22
  8020b8:	900d883a 	mov	r6,r18
  8020bc:	01c000c4 	movi	r7,3
  8020c0:	da003f15 	stw	r8,252(sp)
  8020c4:	da403e15 	stw	r9,248(sp)
  8020c8:	080296c0 	call	80296c <_dtoa_r>
  8020cc:	da403e17 	ldw	r9,248(sp)
  8020d0:	da003f17 	ldw	r8,252(sp)
  8020d4:	d8803115 	stw	r2,196(sp)
  8020d8:	4839883a 	mov	fp,r9
  8020dc:	dac03117 	ldw	r11,196(sp)
  8020e0:	00801184 	movi	r2,70
  8020e4:	5f15883a 	add	r10,r11,fp
  8020e8:	a8bef01e 	bne	r21,r2,801cac <__alt_data_end+0xff801cac>
  8020ec:	59000007 	ldb	r4,0(r11)
  8020f0:	00800c04 	movi	r2,48
  8020f4:	2080d526 	beq	r4,r2,80244c <___vfprintf_internal_r+0x1e64>
  8020f8:	d8c02617 	ldw	r3,152(sp)
  8020fc:	50d5883a 	add	r10,r10,r3
  802100:	003eea06 	br	801cac <__alt_data_end+0xff801cac>
  802104:	0025883a 	mov	r18,zero
  802108:	003db306 	br	8017d8 <__alt_data_end+0xff8017d8>
  80210c:	b009883a 	mov	r4,r22
  802110:	b80b883a 	mov	r5,r23
  802114:	d9801e04 	addi	r6,sp,120
  802118:	0806dc40 	call	806dc4 <__sprint_r>
  80211c:	103a261e 	bne	r2,zero,8009b8 <__alt_data_end+0xff8009b8>
  802120:	d8c02017 	ldw	r3,128(sp)
  802124:	da000404 	addi	r8,sp,16
  802128:	003daa06 	br	8017d4 <__alt_data_end+0xff8017d4>
  80212c:	b009883a 	mov	r4,r22
  802130:	b80b883a 	mov	r5,r23
  802134:	d9801e04 	addi	r6,sp,120
  802138:	0806dc40 	call	806dc4 <__sprint_r>
  80213c:	103a1e1e 	bne	r2,zero,8009b8 <__alt_data_end+0xff8009b8>
  802140:	d8802617 	ldw	r2,152(sp)
  802144:	d8c02017 	ldw	r3,128(sp)
  802148:	da000404 	addi	r8,sp,16
  80214c:	003e2c06 	br	801a00 <__alt_data_end+0xff801a00>
  802150:	03002074 	movhi	r12,129
  802154:	63027e84 	addi	r12,r12,2554
  802158:	db002c15 	stw	r12,176(sp)
  80215c:	dac02c17 	ldw	r11,176(sp)
  802160:	1c07883a 	add	r3,r3,r16
  802164:	10800044 	addi	r2,r2,1
  802168:	42c00015 	stw	r11,0(r8)
  80216c:	44000115 	stw	r16,4(r8)
  802170:	d8c02015 	stw	r3,128(sp)
  802174:	d8801f15 	stw	r2,124(sp)
  802178:	010001c4 	movi	r4,7
  80217c:	20bfa716 	blt	r4,r2,80201c <__alt_data_end+0xff80201c>
  802180:	42000204 	addi	r8,r8,8
  802184:	003fad06 	br	80203c <__alt_data_end+0xff80203c>
  802188:	00800184 	movi	r2,6
  80218c:	1240012e 	bgeu	r2,r9,802194 <___vfprintf_internal_r+0x1bac>
  802190:	1013883a 	mov	r9,r2
  802194:	4825883a 	mov	r18,r9
  802198:	4805883a 	mov	r2,r9
  80219c:	4800c216 	blt	r9,zero,8024a8 <___vfprintf_internal_r+0x1ec0>
  8021a0:	d8802b15 	stw	r2,172(sp)
  8021a4:	00802074 	movhi	r2,129
  8021a8:	10827c04 	addi	r2,r2,2544
  8021ac:	d8803115 	stw	r2,196(sp)
  8021b0:	dcc02d15 	stw	r19,180(sp)
  8021b4:	d8003215 	stw	zero,200(sp)
  8021b8:	d8003415 	stw	zero,208(sp)
  8021bc:	0005883a 	mov	r2,zero
  8021c0:	003a6306 	br	800b50 <__alt_data_end+0xff800b50>
  8021c4:	0021883a 	mov	r16,zero
  8021c8:	003e1f06 	br	801a48 <__alt_data_end+0xff801a48>
  8021cc:	b009883a 	mov	r4,r22
  8021d0:	b80b883a 	mov	r5,r23
  8021d4:	d9801e04 	addi	r6,sp,120
  8021d8:	0806dc40 	call	806dc4 <__sprint_r>
  8021dc:	1039f61e 	bne	r2,zero,8009b8 <__alt_data_end+0xff8009b8>
  8021e0:	d8802617 	ldw	r2,152(sp)
  8021e4:	db003317 	ldw	r12,204(sp)
  8021e8:	d8c02017 	ldw	r3,128(sp)
  8021ec:	da000404 	addi	r8,sp,16
  8021f0:	6085c83a 	sub	r2,r12,r2
  8021f4:	003e1306 	br	801a44 <__alt_data_end+0xff801a44>
  8021f8:	03002074 	movhi	r12,129
  8021fc:	63028284 	addi	r12,r12,2570
  802200:	db003615 	stw	r12,216(sp)
  802204:	003b0206 	br	800e10 <__alt_data_end+0xff800e10>
  802208:	00c00b44 	movi	r3,45
  80220c:	d8802b15 	stw	r2,172(sp)
  802210:	dc402d17 	ldw	r17,180(sp)
  802214:	d8c02785 	stb	r3,158(sp)
  802218:	dcc02d15 	stw	r19,180(sp)
  80221c:	d8003215 	stw	zero,200(sp)
  802220:	00800b44 	movi	r2,45
  802224:	003a4706 	br	800b44 <__alt_data_end+0xff800b44>
  802228:	05400b44 	movi	r21,45
  80222c:	dd402785 	stb	r21,158(sp)
  802230:	003b4706 	br	800f50 <__alt_data_end+0xff800f50>
  802234:	00802074 	movhi	r2,129
  802238:	10827104 	addi	r2,r2,2500
  80223c:	d8803115 	stw	r2,196(sp)
  802240:	003f4106 	br	801f48 <__alt_data_end+0xff801f48>
  802244:	d8c02617 	ldw	r3,152(sp)
  802248:	00bfff44 	movi	r2,-3
  80224c:	18801116 	blt	r3,r2,802294 <___vfprintf_internal_r+0x1cac>
  802250:	48c01016 	blt	r9,r3,802294 <___vfprintf_internal_r+0x1cac>
  802254:	d8c03415 	stw	r3,208(sp)
  802258:	040019c4 	movi	r16,103
  80225c:	003eb206 	br	801d28 <__alt_data_end+0xff801d28>
  802260:	01002074 	movhi	r4,129
  802264:	21027e84 	addi	r4,r4,2554
  802268:	d9002c15 	stw	r4,176(sp)
  80226c:	003cb106 	br	801534 <__alt_data_end+0xff801534>
  802270:	5005883a 	mov	r2,r10
  802274:	003ea106 	br	801cfc <__alt_data_end+0xff801cfc>
  802278:	da402b15 	stw	r9,172(sp)
  80227c:	dd402783 	ldbu	r21,158(sp)
  802280:	4825883a 	mov	r18,r9
  802284:	dcc02d15 	stw	r19,180(sp)
  802288:	d8003215 	stw	zero,200(sp)
  80228c:	d8003415 	stw	zero,208(sp)
  802290:	003a2806 	br	800b34 <__alt_data_end+0xff800b34>
  802294:	843fff84 	addi	r16,r16,-2
  802298:	1f3fffc4 	addi	fp,r3,-1
  80229c:	df002615 	stw	fp,152(sp)
  8022a0:	dc0022c5 	stb	r16,139(sp)
  8022a4:	e0009816 	blt	fp,zero,802508 <___vfprintf_internal_r+0x1f20>
  8022a8:	00800ac4 	movi	r2,43
  8022ac:	d8802305 	stb	r2,140(sp)
  8022b0:	00800244 	movi	r2,9
  8022b4:	1700750e 	bge	r2,fp,80248c <___vfprintf_internal_r+0x1ea4>
  8022b8:	dd4022c4 	addi	r21,sp,139
  8022bc:	dc002c15 	stw	r16,176(sp)
  8022c0:	4025883a 	mov	r18,r8
  8022c4:	a821883a 	mov	r16,r21
  8022c8:	e009883a 	mov	r4,fp
  8022cc:	01400284 	movi	r5,10
  8022d0:	080a2180 	call	80a218 <__modsi3>
  8022d4:	10800c04 	addi	r2,r2,48
  8022d8:	843fffc4 	addi	r16,r16,-1
  8022dc:	e009883a 	mov	r4,fp
  8022e0:	01400284 	movi	r5,10
  8022e4:	80800005 	stb	r2,0(r16)
  8022e8:	080a1c40 	call	80a1c4 <__divsi3>
  8022ec:	1039883a 	mov	fp,r2
  8022f0:	00800244 	movi	r2,9
  8022f4:	173ff416 	blt	r2,fp,8022c8 <__alt_data_end+0xff8022c8>
  8022f8:	9011883a 	mov	r8,r18
  8022fc:	e0800c04 	addi	r2,fp,48
  802300:	8025883a 	mov	r18,r16
  802304:	913fffc4 	addi	r4,r18,-1
  802308:	90bfffc5 	stb	r2,-1(r18)
  80230c:	dc002c17 	ldw	r16,176(sp)
  802310:	2540852e 	bgeu	r4,r21,802528 <___vfprintf_internal_r+0x1f40>
  802314:	d9402384 	addi	r5,sp,142
  802318:	2c8bc83a 	sub	r5,r5,r18
  80231c:	d8c02344 	addi	r3,sp,141
  802320:	a94b883a 	add	r5,r21,r5
  802324:	00000106 	br	80232c <___vfprintf_internal_r+0x1d44>
  802328:	20800003 	ldbu	r2,0(r4)
  80232c:	18800005 	stb	r2,0(r3)
  802330:	18c00044 	addi	r3,r3,1
  802334:	21000044 	addi	r4,r4,1
  802338:	197ffb1e 	bne	r3,r5,802328 <__alt_data_end+0xff802328>
  80233c:	d8802304 	addi	r2,sp,140
  802340:	1485c83a 	sub	r2,r2,r18
  802344:	d8c02344 	addi	r3,sp,141
  802348:	1885883a 	add	r2,r3,r2
  80234c:	dac03317 	ldw	r11,204(sp)
  802350:	156bc83a 	sub	r21,r2,r21
  802354:	dd403a15 	stw	r21,232(sp)
  802358:	00800044 	movi	r2,1
  80235c:	5d65883a 	add	r18,r11,r21
  802360:	12c0660e 	bge	r2,r11,8024fc <___vfprintf_internal_r+0x1f14>
  802364:	94800044 	addi	r18,r18,1
  802368:	9005883a 	mov	r2,r18
  80236c:	90006116 	blt	r18,zero,8024f4 <___vfprintf_internal_r+0x1f0c>
  802370:	d8003415 	stw	zero,208(sp)
  802374:	003e7406 	br	801d48 <__alt_data_end+0xff801d48>
  802378:	b009883a 	mov	r4,r22
  80237c:	b80b883a 	mov	r5,r23
  802380:	d9801e04 	addi	r6,sp,120
  802384:	0806dc40 	call	806dc4 <__sprint_r>
  802388:	10398b1e 	bne	r2,zero,8009b8 <__alt_data_end+0xff8009b8>
  80238c:	dc002617 	ldw	r16,152(sp)
  802390:	d8c02017 	ldw	r3,128(sp)
  802394:	d8801f17 	ldw	r2,124(sp)
  802398:	da000404 	addi	r8,sp,16
  80239c:	003ec906 	br	801ec4 <__alt_data_end+0xff801ec4>
  8023a0:	483e1c1e 	bne	r9,zero,801c14 <__alt_data_end+0xff801c14>
  8023a4:	9013883a 	mov	r9,r18
  8023a8:	003e1a06 	br	801c14 <__alt_data_end+0xff801c14>
  8023ac:	02400184 	movi	r9,6
  8023b0:	003e1806 	br	801c14 <__alt_data_end+0xff801c14>
  8023b4:	d8c03417 	ldw	r3,208(sp)
  8023b8:	00c04b0e 	bge	zero,r3,8024e8 <___vfprintf_internal_r+0x1f00>
  8023bc:	04800044 	movi	r18,1
  8023c0:	dac03317 	ldw	r11,204(sp)
  8023c4:	92e5883a 	add	r18,r18,r11
  8023c8:	9005883a 	mov	r2,r18
  8023cc:	903e5e0e 	bge	r18,zero,801d48 <__alt_data_end+0xff801d48>
  8023d0:	0005883a 	mov	r2,zero
  8023d4:	003e5c06 	br	801d48 <__alt_data_end+0xff801d48>
  8023d8:	00c00b44 	movi	r3,45
  8023dc:	64a0003c 	xorhi	r18,r12,32768
  8023e0:	d8c02b05 	stb	r3,172(sp)
  8023e4:	003e1106 	br	801c2c <__alt_data_end+0xff801c2c>
  8023e8:	4f000044 	addi	fp,r9,1
  8023ec:	003e1606 	br	801c48 <__alt_data_end+0xff801c48>
  8023f0:	d8c02617 	ldw	r3,152(sp)
  8023f4:	d8c03415 	stw	r3,208(sp)
  8023f8:	00c0350e 	bge	zero,r3,8024d0 <___vfprintf_internal_r+0x1ee8>
  8023fc:	4800081e 	bne	r9,zero,802420 <___vfprintf_internal_r+0x1e38>
  802400:	8c40004c 	andi	r17,r17,1
  802404:	8800061e 	bne	r17,zero,802420 <___vfprintf_internal_r+0x1e38>
  802408:	1805883a 	mov	r2,r3
  80240c:	183e4d0e 	bge	r3,zero,801d44 <__alt_data_end+0xff801d44>
  802410:	0005883a 	mov	r2,zero
  802414:	003e4b06 	br	801d44 <__alt_data_end+0xff801d44>
  802418:	d8802117 	ldw	r2,132(sp)
  80241c:	003e3706 	br	801cfc <__alt_data_end+0xff801cfc>
  802420:	dac03417 	ldw	r11,208(sp)
  802424:	4a400044 	addi	r9,r9,1
  802428:	5a65883a 	add	r18,r11,r9
  80242c:	9005883a 	mov	r2,r18
  802430:	903e450e 	bge	r18,zero,801d48 <__alt_data_end+0xff801d48>
  802434:	003fe606 	br	8023d0 <__alt_data_end+0xff8023d0>
  802438:	db003417 	ldw	r12,208(sp)
  80243c:	64800044 	addi	r18,r12,1
  802440:	9005883a 	mov	r2,r18
  802444:	903e400e 	bge	r18,zero,801d48 <__alt_data_end+0xff801d48>
  802448:	003fe106 	br	8023d0 <__alt_data_end+0xff8023d0>
  80244c:	d9003717 	ldw	r4,220(sp)
  802450:	900b883a 	mov	r5,r18
  802454:	000d883a 	mov	r6,zero
  802458:	000f883a 	mov	r7,zero
  80245c:	da003f15 	stw	r8,252(sp)
  802460:	da403e15 	stw	r9,248(sp)
  802464:	da803d15 	stw	r10,244(sp)
  802468:	080b3ec0 	call	80b3ec <__eqdf2>
  80246c:	da003f17 	ldw	r8,252(sp)
  802470:	da403e17 	ldw	r9,248(sp)
  802474:	da803d17 	ldw	r10,244(sp)
  802478:	103f1f26 	beq	r2,zero,8020f8 <__alt_data_end+0xff8020f8>
  80247c:	00800044 	movi	r2,1
  802480:	1707c83a 	sub	r3,r2,fp
  802484:	d8c02615 	stw	r3,152(sp)
  802488:	003f1c06 	br	8020fc <__alt_data_end+0xff8020fc>
  80248c:	00800c04 	movi	r2,48
  802490:	e0c00c04 	addi	r3,fp,48
  802494:	d8802345 	stb	r2,141(sp)
  802498:	d8c02385 	stb	r3,142(sp)
  80249c:	d88023c4 	addi	r2,sp,143
  8024a0:	dd4022c4 	addi	r21,sp,139
  8024a4:	003fa906 	br	80234c <__alt_data_end+0xff80234c>
  8024a8:	0005883a 	mov	r2,zero
  8024ac:	003f3c06 	br	8021a0 <__alt_data_end+0xff8021a0>
  8024b0:	dac02d17 	ldw	r11,180(sp)
  8024b4:	5a400017 	ldw	r9,0(r11)
  8024b8:	5ac00104 	addi	r11,r11,4
  8024bc:	dac02d15 	stw	r11,180(sp)
  8024c0:	483ec80e 	bge	r9,zero,801fe4 <__alt_data_end+0xff801fe4>
  8024c4:	027fffc4 	movi	r9,-1
  8024c8:	1c000047 	ldb	r16,1(r3)
  8024cc:	0038ab06 	br	80077c <__alt_data_end+0xff80077c>
  8024d0:	4800111e 	bne	r9,zero,802518 <___vfprintf_internal_r+0x1f30>
  8024d4:	8c40004c 	andi	r17,r17,1
  8024d8:	88000f1e 	bne	r17,zero,802518 <___vfprintf_internal_r+0x1f30>
  8024dc:	00800044 	movi	r2,1
  8024e0:	1025883a 	mov	r18,r2
  8024e4:	003e1806 	br	801d48 <__alt_data_end+0xff801d48>
  8024e8:	04800084 	movi	r18,2
  8024ec:	90e5c83a 	sub	r18,r18,r3
  8024f0:	003fb306 	br	8023c0 <__alt_data_end+0xff8023c0>
  8024f4:	0005883a 	mov	r2,zero
  8024f8:	003f9d06 	br	802370 <__alt_data_end+0xff802370>
  8024fc:	88a2703a 	and	r17,r17,r2
  802500:	883f9926 	beq	r17,zero,802368 <__alt_data_end+0xff802368>
  802504:	003f9706 	br	802364 <__alt_data_end+0xff802364>
  802508:	00800b44 	movi	r2,45
  80250c:	0739c83a 	sub	fp,zero,fp
  802510:	d8802305 	stb	r2,140(sp)
  802514:	003f6606 	br	8022b0 <__alt_data_end+0xff8022b0>
  802518:	4c800084 	addi	r18,r9,2
  80251c:	9005883a 	mov	r2,r18
  802520:	903e090e 	bge	r18,zero,801d48 <__alt_data_end+0xff801d48>
  802524:	003faa06 	br	8023d0 <__alt_data_end+0xff8023d0>
  802528:	d8802344 	addi	r2,sp,141
  80252c:	003f8706 	br	80234c <__alt_data_end+0xff80234c>
  802530:	d8c02617 	ldw	r3,152(sp)
  802534:	003f5806 	br	802298 <__alt_data_end+0xff802298>

00802538 <__vfprintf_internal>:
  802538:	2007883a 	mov	r3,r4
  80253c:	01002074 	movhi	r4,129
  802540:	210b1c04 	addi	r4,r4,11376
  802544:	21000017 	ldw	r4,0(r4)
  802548:	2805883a 	mov	r2,r5
  80254c:	300f883a 	mov	r7,r6
  802550:	180b883a 	mov	r5,r3
  802554:	100d883a 	mov	r6,r2
  802558:	08005e81 	jmpi	8005e8 <___vfprintf_internal_r>

0080255c <__sbprintf>:
  80255c:	2880030b 	ldhu	r2,12(r5)
  802560:	2ac01917 	ldw	r11,100(r5)
  802564:	2a80038b 	ldhu	r10,14(r5)
  802568:	2a400717 	ldw	r9,28(r5)
  80256c:	2a000917 	ldw	r8,36(r5)
  802570:	defee204 	addi	sp,sp,-1144
  802574:	00c10004 	movi	r3,1024
  802578:	dc011a15 	stw	r16,1128(sp)
  80257c:	10bfff4c 	andi	r2,r2,65533
  802580:	2821883a 	mov	r16,r5
  802584:	d8cb883a 	add	r5,sp,r3
  802588:	dc811c15 	stw	r18,1136(sp)
  80258c:	dc411b15 	stw	r17,1132(sp)
  802590:	dfc11d15 	stw	ra,1140(sp)
  802594:	2025883a 	mov	r18,r4
  802598:	d881030d 	sth	r2,1036(sp)
  80259c:	dac11915 	stw	r11,1124(sp)
  8025a0:	da81038d 	sth	r10,1038(sp)
  8025a4:	da410715 	stw	r9,1052(sp)
  8025a8:	da010915 	stw	r8,1060(sp)
  8025ac:	dec10015 	stw	sp,1024(sp)
  8025b0:	dec10415 	stw	sp,1040(sp)
  8025b4:	d8c10215 	stw	r3,1032(sp)
  8025b8:	d8c10515 	stw	r3,1044(sp)
  8025bc:	d8010615 	stw	zero,1048(sp)
  8025c0:	08005e80 	call	8005e8 <___vfprintf_internal_r>
  8025c4:	1023883a 	mov	r17,r2
  8025c8:	10000416 	blt	r2,zero,8025dc <__sbprintf+0x80>
  8025cc:	9009883a 	mov	r4,r18
  8025d0:	d9410004 	addi	r5,sp,1024
  8025d4:	080429c0 	call	80429c <_fflush_r>
  8025d8:	10000d1e 	bne	r2,zero,802610 <__sbprintf+0xb4>
  8025dc:	d8c1030b 	ldhu	r3,1036(sp)
  8025e0:	18c0100c 	andi	r3,r3,64
  8025e4:	18000326 	beq	r3,zero,8025f4 <__sbprintf+0x98>
  8025e8:	8080030b 	ldhu	r2,12(r16)
  8025ec:	10801014 	ori	r2,r2,64
  8025f0:	8080030d 	sth	r2,12(r16)
  8025f4:	8805883a 	mov	r2,r17
  8025f8:	dfc11d17 	ldw	ra,1140(sp)
  8025fc:	dc811c17 	ldw	r18,1136(sp)
  802600:	dc411b17 	ldw	r17,1132(sp)
  802604:	dc011a17 	ldw	r16,1128(sp)
  802608:	dec11e04 	addi	sp,sp,1144
  80260c:	f800283a 	ret
  802610:	047fffc4 	movi	r17,-1
  802614:	003ff106 	br	8025dc <__alt_data_end+0xff8025dc>

00802618 <__swsetup_r>:
  802618:	00802074 	movhi	r2,129
  80261c:	defffd04 	addi	sp,sp,-12
  802620:	108b1c04 	addi	r2,r2,11376
  802624:	dc400115 	stw	r17,4(sp)
  802628:	2023883a 	mov	r17,r4
  80262c:	11000017 	ldw	r4,0(r2)
  802630:	dc000015 	stw	r16,0(sp)
  802634:	dfc00215 	stw	ra,8(sp)
  802638:	2821883a 	mov	r16,r5
  80263c:	20000226 	beq	r4,zero,802648 <__swsetup_r+0x30>
  802640:	20c00e17 	ldw	r3,56(r4)
  802644:	18003126 	beq	r3,zero,80270c <__swsetup_r+0xf4>
  802648:	8080030b 	ldhu	r2,12(r16)
  80264c:	10c0020c 	andi	r3,r2,8
  802650:	100d883a 	mov	r6,r2
  802654:	18000f26 	beq	r3,zero,802694 <__swsetup_r+0x7c>
  802658:	80c00417 	ldw	r3,16(r16)
  80265c:	18001526 	beq	r3,zero,8026b4 <__swsetup_r+0x9c>
  802660:	1100004c 	andi	r4,r2,1
  802664:	20001c1e 	bne	r4,zero,8026d8 <__swsetup_r+0xc0>
  802668:	1080008c 	andi	r2,r2,2
  80266c:	1000291e 	bne	r2,zero,802714 <__swsetup_r+0xfc>
  802670:	80800517 	ldw	r2,20(r16)
  802674:	80800215 	stw	r2,8(r16)
  802678:	18001c26 	beq	r3,zero,8026ec <__swsetup_r+0xd4>
  80267c:	0005883a 	mov	r2,zero
  802680:	dfc00217 	ldw	ra,8(sp)
  802684:	dc400117 	ldw	r17,4(sp)
  802688:	dc000017 	ldw	r16,0(sp)
  80268c:	dec00304 	addi	sp,sp,12
  802690:	f800283a 	ret
  802694:	3080040c 	andi	r2,r6,16
  802698:	10002e26 	beq	r2,zero,802754 <__swsetup_r+0x13c>
  80269c:	3080010c 	andi	r2,r6,4
  8026a0:	10001e1e 	bne	r2,zero,80271c <__swsetup_r+0x104>
  8026a4:	80c00417 	ldw	r3,16(r16)
  8026a8:	30800214 	ori	r2,r6,8
  8026ac:	8080030d 	sth	r2,12(r16)
  8026b0:	183feb1e 	bne	r3,zero,802660 <__alt_data_end+0xff802660>
  8026b4:	1140a00c 	andi	r5,r2,640
  8026b8:	01008004 	movi	r4,512
  8026bc:	293fe826 	beq	r5,r4,802660 <__alt_data_end+0xff802660>
  8026c0:	8809883a 	mov	r4,r17
  8026c4:	800b883a 	mov	r5,r16
  8026c8:	0804d440 	call	804d44 <__smakebuf_r>
  8026cc:	8080030b 	ldhu	r2,12(r16)
  8026d0:	80c00417 	ldw	r3,16(r16)
  8026d4:	003fe206 	br	802660 <__alt_data_end+0xff802660>
  8026d8:	80800517 	ldw	r2,20(r16)
  8026dc:	80000215 	stw	zero,8(r16)
  8026e0:	0085c83a 	sub	r2,zero,r2
  8026e4:	80800615 	stw	r2,24(r16)
  8026e8:	183fe41e 	bne	r3,zero,80267c <__alt_data_end+0xff80267c>
  8026ec:	80c0030b 	ldhu	r3,12(r16)
  8026f0:	0005883a 	mov	r2,zero
  8026f4:	1900200c 	andi	r4,r3,128
  8026f8:	203fe126 	beq	r4,zero,802680 <__alt_data_end+0xff802680>
  8026fc:	18c01014 	ori	r3,r3,64
  802700:	80c0030d 	sth	r3,12(r16)
  802704:	00bfffc4 	movi	r2,-1
  802708:	003fdd06 	br	802680 <__alt_data_end+0xff802680>
  80270c:	08046780 	call	804678 <__sinit>
  802710:	003fcd06 	br	802648 <__alt_data_end+0xff802648>
  802714:	0005883a 	mov	r2,zero
  802718:	003fd606 	br	802674 <__alt_data_end+0xff802674>
  80271c:	81400c17 	ldw	r5,48(r16)
  802720:	28000626 	beq	r5,zero,80273c <__swsetup_r+0x124>
  802724:	80801004 	addi	r2,r16,64
  802728:	28800326 	beq	r5,r2,802738 <__swsetup_r+0x120>
  80272c:	8809883a 	mov	r4,r17
  802730:	08047ec0 	call	8047ec <_free_r>
  802734:	8180030b 	ldhu	r6,12(r16)
  802738:	80000c15 	stw	zero,48(r16)
  80273c:	80c00417 	ldw	r3,16(r16)
  802740:	00bff6c4 	movi	r2,-37
  802744:	118c703a 	and	r6,r2,r6
  802748:	80000115 	stw	zero,4(r16)
  80274c:	80c00015 	stw	r3,0(r16)
  802750:	003fd506 	br	8026a8 <__alt_data_end+0xff8026a8>
  802754:	00800244 	movi	r2,9
  802758:	88800015 	stw	r2,0(r17)
  80275c:	30801014 	ori	r2,r6,64
  802760:	8080030d 	sth	r2,12(r16)
  802764:	00bfffc4 	movi	r2,-1
  802768:	003fc506 	br	802680 <__alt_data_end+0xff802680>

0080276c <quorem>:
  80276c:	defff704 	addi	sp,sp,-36
  802770:	dc800215 	stw	r18,8(sp)
  802774:	20800417 	ldw	r2,16(r4)
  802778:	2c800417 	ldw	r18,16(r5)
  80277c:	dfc00815 	stw	ra,32(sp)
  802780:	ddc00715 	stw	r23,28(sp)
  802784:	dd800615 	stw	r22,24(sp)
  802788:	dd400515 	stw	r21,20(sp)
  80278c:	dd000415 	stw	r20,16(sp)
  802790:	dcc00315 	stw	r19,12(sp)
  802794:	dc400115 	stw	r17,4(sp)
  802798:	dc000015 	stw	r16,0(sp)
  80279c:	14807116 	blt	r2,r18,802964 <quorem+0x1f8>
  8027a0:	94bfffc4 	addi	r18,r18,-1
  8027a4:	94ad883a 	add	r22,r18,r18
  8027a8:	b5ad883a 	add	r22,r22,r22
  8027ac:	2c400504 	addi	r17,r5,20
  8027b0:	8da9883a 	add	r20,r17,r22
  8027b4:	25400504 	addi	r21,r4,20
  8027b8:	282f883a 	mov	r23,r5
  8027bc:	adad883a 	add	r22,r21,r22
  8027c0:	a1400017 	ldw	r5,0(r20)
  8027c4:	2021883a 	mov	r16,r4
  8027c8:	b1000017 	ldw	r4,0(r22)
  8027cc:	29400044 	addi	r5,r5,1
  8027d0:	080a2740 	call	80a274 <__udivsi3>
  8027d4:	1027883a 	mov	r19,r2
  8027d8:	10002c26 	beq	r2,zero,80288c <quorem+0x120>
  8027dc:	a813883a 	mov	r9,r21
  8027e0:	8811883a 	mov	r8,r17
  8027e4:	0009883a 	mov	r4,zero
  8027e8:	000d883a 	mov	r6,zero
  8027ec:	41c00017 	ldw	r7,0(r8)
  8027f0:	49400017 	ldw	r5,0(r9)
  8027f4:	42000104 	addi	r8,r8,4
  8027f8:	38bfffcc 	andi	r2,r7,65535
  8027fc:	14c5383a 	mul	r2,r2,r19
  802800:	380ed43a 	srli	r7,r7,16
  802804:	28ffffcc 	andi	r3,r5,65535
  802808:	2085883a 	add	r2,r4,r2
  80280c:	1008d43a 	srli	r4,r2,16
  802810:	3ccf383a 	mul	r7,r7,r19
  802814:	198d883a 	add	r6,r3,r6
  802818:	10ffffcc 	andi	r3,r2,65535
  80281c:	30c7c83a 	sub	r3,r6,r3
  802820:	280ad43a 	srli	r5,r5,16
  802824:	21c9883a 	add	r4,r4,r7
  802828:	180dd43a 	srai	r6,r3,16
  80282c:	20bfffcc 	andi	r2,r4,65535
  802830:	288bc83a 	sub	r5,r5,r2
  802834:	298b883a 	add	r5,r5,r6
  802838:	280e943a 	slli	r7,r5,16
  80283c:	18ffffcc 	andi	r3,r3,65535
  802840:	2008d43a 	srli	r4,r4,16
  802844:	38ceb03a 	or	r7,r7,r3
  802848:	49c00015 	stw	r7,0(r9)
  80284c:	280dd43a 	srai	r6,r5,16
  802850:	4a400104 	addi	r9,r9,4
  802854:	a23fe52e 	bgeu	r20,r8,8027ec <__alt_data_end+0xff8027ec>
  802858:	b0800017 	ldw	r2,0(r22)
  80285c:	10000b1e 	bne	r2,zero,80288c <quorem+0x120>
  802860:	b0bfff04 	addi	r2,r22,-4
  802864:	a880082e 	bgeu	r21,r2,802888 <quorem+0x11c>
  802868:	b0ffff17 	ldw	r3,-4(r22)
  80286c:	18000326 	beq	r3,zero,80287c <quorem+0x110>
  802870:	00000506 	br	802888 <quorem+0x11c>
  802874:	10c00017 	ldw	r3,0(r2)
  802878:	1800031e 	bne	r3,zero,802888 <quorem+0x11c>
  80287c:	10bfff04 	addi	r2,r2,-4
  802880:	94bfffc4 	addi	r18,r18,-1
  802884:	a8bffb36 	bltu	r21,r2,802874 <__alt_data_end+0xff802874>
  802888:	84800415 	stw	r18,16(r16)
  80288c:	8009883a 	mov	r4,r16
  802890:	b80b883a 	mov	r5,r23
  802894:	08062bc0 	call	8062bc <__mcmp>
  802898:	10002616 	blt	r2,zero,802934 <quorem+0x1c8>
  80289c:	9cc00044 	addi	r19,r19,1
  8028a0:	a80d883a 	mov	r6,r21
  8028a4:	000b883a 	mov	r5,zero
  8028a8:	31000017 	ldw	r4,0(r6)
  8028ac:	88800017 	ldw	r2,0(r17)
  8028b0:	31800104 	addi	r6,r6,4
  8028b4:	20ffffcc 	andi	r3,r4,65535
  8028b8:	194b883a 	add	r5,r3,r5
  8028bc:	10ffffcc 	andi	r3,r2,65535
  8028c0:	28c7c83a 	sub	r3,r5,r3
  8028c4:	1004d43a 	srli	r2,r2,16
  8028c8:	2008d43a 	srli	r4,r4,16
  8028cc:	180bd43a 	srai	r5,r3,16
  8028d0:	18ffffcc 	andi	r3,r3,65535
  8028d4:	2089c83a 	sub	r4,r4,r2
  8028d8:	2149883a 	add	r4,r4,r5
  8028dc:	2004943a 	slli	r2,r4,16
  8028e0:	8c400104 	addi	r17,r17,4
  8028e4:	200bd43a 	srai	r5,r4,16
  8028e8:	10c6b03a 	or	r3,r2,r3
  8028ec:	30ffff15 	stw	r3,-4(r6)
  8028f0:	a47fed2e 	bgeu	r20,r17,8028a8 <__alt_data_end+0xff8028a8>
  8028f4:	9485883a 	add	r2,r18,r18
  8028f8:	1085883a 	add	r2,r2,r2
  8028fc:	a887883a 	add	r3,r21,r2
  802900:	18800017 	ldw	r2,0(r3)
  802904:	10000b1e 	bne	r2,zero,802934 <quorem+0x1c8>
  802908:	18bfff04 	addi	r2,r3,-4
  80290c:	a880082e 	bgeu	r21,r2,802930 <quorem+0x1c4>
  802910:	18ffff17 	ldw	r3,-4(r3)
  802914:	18000326 	beq	r3,zero,802924 <quorem+0x1b8>
  802918:	00000506 	br	802930 <quorem+0x1c4>
  80291c:	10c00017 	ldw	r3,0(r2)
  802920:	1800031e 	bne	r3,zero,802930 <quorem+0x1c4>
  802924:	10bfff04 	addi	r2,r2,-4
  802928:	94bfffc4 	addi	r18,r18,-1
  80292c:	a8bffb36 	bltu	r21,r2,80291c <__alt_data_end+0xff80291c>
  802930:	84800415 	stw	r18,16(r16)
  802934:	9805883a 	mov	r2,r19
  802938:	dfc00817 	ldw	ra,32(sp)
  80293c:	ddc00717 	ldw	r23,28(sp)
  802940:	dd800617 	ldw	r22,24(sp)
  802944:	dd400517 	ldw	r21,20(sp)
  802948:	dd000417 	ldw	r20,16(sp)
  80294c:	dcc00317 	ldw	r19,12(sp)
  802950:	dc800217 	ldw	r18,8(sp)
  802954:	dc400117 	ldw	r17,4(sp)
  802958:	dc000017 	ldw	r16,0(sp)
  80295c:	dec00904 	addi	sp,sp,36
  802960:	f800283a 	ret
  802964:	0005883a 	mov	r2,zero
  802968:	003ff306 	br	802938 <__alt_data_end+0xff802938>

0080296c <_dtoa_r>:
  80296c:	20801017 	ldw	r2,64(r4)
  802970:	deffde04 	addi	sp,sp,-136
  802974:	dd401d15 	stw	r21,116(sp)
  802978:	dcc01b15 	stw	r19,108(sp)
  80297c:	dc801a15 	stw	r18,104(sp)
  802980:	dc401915 	stw	r17,100(sp)
  802984:	dc001815 	stw	r16,96(sp)
  802988:	dfc02115 	stw	ra,132(sp)
  80298c:	df002015 	stw	fp,128(sp)
  802990:	ddc01f15 	stw	r23,124(sp)
  802994:	dd801e15 	stw	r22,120(sp)
  802998:	dd001c15 	stw	r20,112(sp)
  80299c:	d9c00315 	stw	r7,12(sp)
  8029a0:	2021883a 	mov	r16,r4
  8029a4:	302b883a 	mov	r21,r6
  8029a8:	2825883a 	mov	r18,r5
  8029ac:	dc402417 	ldw	r17,144(sp)
  8029b0:	3027883a 	mov	r19,r6
  8029b4:	10000826 	beq	r2,zero,8029d8 <_dtoa_r+0x6c>
  8029b8:	21801117 	ldw	r6,68(r4)
  8029bc:	00c00044 	movi	r3,1
  8029c0:	100b883a 	mov	r5,r2
  8029c4:	1986983a 	sll	r3,r3,r6
  8029c8:	11800115 	stw	r6,4(r2)
  8029cc:	10c00215 	stw	r3,8(r2)
  8029d0:	0805a900 	call	805a90 <_Bfree>
  8029d4:	80001015 	stw	zero,64(r16)
  8029d8:	a8002d16 	blt	r21,zero,802a90 <_dtoa_r+0x124>
  8029dc:	88000015 	stw	zero,0(r17)
  8029e0:	a8dffc2c 	andhi	r3,r21,32752
  8029e4:	009ffc34 	movhi	r2,32752
  8029e8:	18801b26 	beq	r3,r2,802a58 <_dtoa_r+0xec>
  8029ec:	9009883a 	mov	r4,r18
  8029f0:	980b883a 	mov	r5,r19
  8029f4:	000d883a 	mov	r6,zero
  8029f8:	000f883a 	mov	r7,zero
  8029fc:	080b3ec0 	call	80b3ec <__eqdf2>
  802a00:	10002a1e 	bne	r2,zero,802aac <_dtoa_r+0x140>
  802a04:	d8c02317 	ldw	r3,140(sp)
  802a08:	d9002517 	ldw	r4,148(sp)
  802a0c:	00800044 	movi	r2,1
  802a10:	18800015 	stw	r2,0(r3)
  802a14:	2001a226 	beq	r4,zero,8030a0 <_dtoa_r+0x734>
  802a18:	00802074 	movhi	r2,129
  802a1c:	10827e44 	addi	r2,r2,2553
  802a20:	20800015 	stw	r2,0(r4)
  802a24:	10bfffc4 	addi	r2,r2,-1
  802a28:	dfc02117 	ldw	ra,132(sp)
  802a2c:	df002017 	ldw	fp,128(sp)
  802a30:	ddc01f17 	ldw	r23,124(sp)
  802a34:	dd801e17 	ldw	r22,120(sp)
  802a38:	dd401d17 	ldw	r21,116(sp)
  802a3c:	dd001c17 	ldw	r20,112(sp)
  802a40:	dcc01b17 	ldw	r19,108(sp)
  802a44:	dc801a17 	ldw	r18,104(sp)
  802a48:	dc401917 	ldw	r17,100(sp)
  802a4c:	dc001817 	ldw	r16,96(sp)
  802a50:	dec02204 	addi	sp,sp,136
  802a54:	f800283a 	ret
  802a58:	d8c02317 	ldw	r3,140(sp)
  802a5c:	0089c3c4 	movi	r2,9999
  802a60:	18800015 	stw	r2,0(r3)
  802a64:	90017c26 	beq	r18,zero,803058 <_dtoa_r+0x6ec>
  802a68:	00802074 	movhi	r2,129
  802a6c:	10828a04 	addi	r2,r2,2600
  802a70:	d9002517 	ldw	r4,148(sp)
  802a74:	203fec26 	beq	r4,zero,802a28 <__alt_data_end+0xff802a28>
  802a78:	10c000c7 	ldb	r3,3(r2)
  802a7c:	18017d1e 	bne	r3,zero,803074 <_dtoa_r+0x708>
  802a80:	10c000c4 	addi	r3,r2,3
  802a84:	d9802517 	ldw	r6,148(sp)
  802a88:	30c00015 	stw	r3,0(r6)
  802a8c:	003fe606 	br	802a28 <__alt_data_end+0xff802a28>
  802a90:	04e00034 	movhi	r19,32768
  802a94:	9cffffc4 	addi	r19,r19,-1
  802a98:	00800044 	movi	r2,1
  802a9c:	ace6703a 	and	r19,r21,r19
  802aa0:	88800015 	stw	r2,0(r17)
  802aa4:	982b883a 	mov	r21,r19
  802aa8:	003fcd06 	br	8029e0 <__alt_data_end+0xff8029e0>
  802aac:	d8800204 	addi	r2,sp,8
  802ab0:	a822d53a 	srli	r17,r21,20
  802ab4:	d8800015 	stw	r2,0(sp)
  802ab8:	8009883a 	mov	r4,r16
  802abc:	900b883a 	mov	r5,r18
  802ac0:	980d883a 	mov	r6,r19
  802ac4:	d9c00104 	addi	r7,sp,4
  802ac8:	08066300 	call	806630 <__d2b>
  802acc:	1039883a 	mov	fp,r2
  802ad0:	88016a1e 	bne	r17,zero,80307c <_dtoa_r+0x710>
  802ad4:	dd000217 	ldw	r20,8(sp)
  802ad8:	dc400117 	ldw	r17,4(sp)
  802adc:	00befbc4 	movi	r2,-1041
  802ae0:	a463883a 	add	r17,r20,r17
  802ae4:	8882ea16 	blt	r17,r2,803690 <_dtoa_r+0xd24>
  802ae8:	00bf0384 	movi	r2,-1010
  802aec:	1445c83a 	sub	r2,r2,r17
  802af0:	89010484 	addi	r4,r17,1042
  802af4:	a8aa983a 	sll	r21,r21,r2
  802af8:	9108d83a 	srl	r4,r18,r4
  802afc:	a908b03a 	or	r4,r21,r4
  802b00:	080c77c0 	call	80c77c <__floatunsidf>
  802b04:	017f8434 	movhi	r5,65040
  802b08:	01800044 	movi	r6,1
  802b0c:	1009883a 	mov	r4,r2
  802b10:	194b883a 	add	r5,r3,r5
  802b14:	8c7fffc4 	addi	r17,r17,-1
  802b18:	d9800f15 	stw	r6,60(sp)
  802b1c:	000d883a 	mov	r6,zero
  802b20:	01cffe34 	movhi	r7,16376
  802b24:	080bd540 	call	80bd54 <__subdf3>
  802b28:	0198dbf4 	movhi	r6,25455
  802b2c:	01cff4f4 	movhi	r7,16339
  802b30:	1009883a 	mov	r4,r2
  802b34:	180b883a 	mov	r5,r3
  802b38:	3190d844 	addi	r6,r6,17249
  802b3c:	39e1e9c4 	addi	r7,r7,-30809
  802b40:	080b6300 	call	80b630 <__muldf3>
  802b44:	01a2d874 	movhi	r6,35681
  802b48:	01cff1f4 	movhi	r7,16327
  802b4c:	180b883a 	mov	r5,r3
  802b50:	31b22cc4 	addi	r6,r6,-14157
  802b54:	39e28a04 	addi	r7,r7,-30168
  802b58:	1009883a 	mov	r4,r2
  802b5c:	080a2840 	call	80a284 <__adddf3>
  802b60:	8809883a 	mov	r4,r17
  802b64:	102d883a 	mov	r22,r2
  802b68:	182b883a 	mov	r21,r3
  802b6c:	080c6ac0 	call	80c6ac <__floatsidf>
  802b70:	019427f4 	movhi	r6,20639
  802b74:	01cff4f4 	movhi	r7,16339
  802b78:	1009883a 	mov	r4,r2
  802b7c:	180b883a 	mov	r5,r3
  802b80:	319e7ec4 	addi	r6,r6,31227
  802b84:	39d104c4 	addi	r7,r7,17427
  802b88:	080b6300 	call	80b630 <__muldf3>
  802b8c:	b009883a 	mov	r4,r22
  802b90:	a80b883a 	mov	r5,r21
  802b94:	100d883a 	mov	r6,r2
  802b98:	180f883a 	mov	r7,r3
  802b9c:	080a2840 	call	80a284 <__adddf3>
  802ba0:	1009883a 	mov	r4,r2
  802ba4:	180b883a 	mov	r5,r3
  802ba8:	102d883a 	mov	r22,r2
  802bac:	182b883a 	mov	r21,r3
  802bb0:	080c6240 	call	80c624 <__fixdfsi>
  802bb4:	b009883a 	mov	r4,r22
  802bb8:	a80b883a 	mov	r5,r21
  802bbc:	000d883a 	mov	r6,zero
  802bc0:	000f883a 	mov	r7,zero
  802bc4:	d8800515 	stw	r2,20(sp)
  802bc8:	080b5500 	call	80b550 <__ledf2>
  802bcc:	10023116 	blt	r2,zero,803494 <_dtoa_r+0xb28>
  802bd0:	d8c00517 	ldw	r3,20(sp)
  802bd4:	00800584 	movi	r2,22
  802bd8:	10c21f36 	bltu	r2,r3,803458 <_dtoa_r+0xaec>
  802bdc:	180490fa 	slli	r2,r3,3
  802be0:	00c02074 	movhi	r3,129
  802be4:	18c2a604 	addi	r3,r3,2712
  802be8:	1885883a 	add	r2,r3,r2
  802bec:	11000017 	ldw	r4,0(r2)
  802bf0:	11400117 	ldw	r5,4(r2)
  802bf4:	900d883a 	mov	r6,r18
  802bf8:	980f883a 	mov	r7,r19
  802bfc:	080b4700 	call	80b470 <__gedf2>
  802c00:	0082a70e 	bge	zero,r2,8036a0 <_dtoa_r+0xd34>
  802c04:	d9000517 	ldw	r4,20(sp)
  802c08:	d8000d15 	stw	zero,52(sp)
  802c0c:	213fffc4 	addi	r4,r4,-1
  802c10:	d9000515 	stw	r4,20(sp)
  802c14:	a463c83a 	sub	r17,r20,r17
  802c18:	8dbfffc4 	addi	r22,r17,-1
  802c1c:	b0021916 	blt	r22,zero,803484 <_dtoa_r+0xb18>
  802c20:	d8000815 	stw	zero,32(sp)
  802c24:	d8800517 	ldw	r2,20(sp)
  802c28:	10020e16 	blt	r2,zero,803464 <_dtoa_r+0xaf8>
  802c2c:	b0ad883a 	add	r22,r22,r2
  802c30:	d8800a15 	stw	r2,40(sp)
  802c34:	d8000915 	stw	zero,36(sp)
  802c38:	d8c00317 	ldw	r3,12(sp)
  802c3c:	00800244 	movi	r2,9
  802c40:	10c11a36 	bltu	r2,r3,8030ac <_dtoa_r+0x740>
  802c44:	00800144 	movi	r2,5
  802c48:	10c4fc0e 	bge	r2,r3,80403c <_dtoa_r+0x16d0>
  802c4c:	18ffff04 	addi	r3,r3,-4
  802c50:	d8c00315 	stw	r3,12(sp)
  802c54:	0029883a 	mov	r20,zero
  802c58:	d9800317 	ldw	r6,12(sp)
  802c5c:	008000c4 	movi	r2,3
  802c60:	3083bd26 	beq	r6,r2,803b58 <_dtoa_r+0x11ec>
  802c64:	1183670e 	bge	r2,r6,803a04 <_dtoa_r+0x1098>
  802c68:	d8c00317 	ldw	r3,12(sp)
  802c6c:	00800104 	movi	r2,4
  802c70:	1882e726 	beq	r3,r2,803810 <_dtoa_r+0xea4>
  802c74:	00800144 	movi	r2,5
  802c78:	1884f21e 	bne	r3,r2,804044 <_dtoa_r+0x16d8>
  802c7c:	00800044 	movi	r2,1
  802c80:	d8800b15 	stw	r2,44(sp)
  802c84:	d8c02217 	ldw	r3,136(sp)
  802c88:	d9000517 	ldw	r4,20(sp)
  802c8c:	1907883a 	add	r3,r3,r4
  802c90:	19800044 	addi	r6,r3,1
  802c94:	d8c00c15 	stw	r3,48(sp)
  802c98:	d9800615 	stw	r6,24(sp)
  802c9c:	0183c30e 	bge	zero,r6,803bac <_dtoa_r+0x1240>
  802ca0:	d9800617 	ldw	r6,24(sp)
  802ca4:	3023883a 	mov	r17,r6
  802ca8:	80001115 	stw	zero,68(r16)
  802cac:	008005c4 	movi	r2,23
  802cb0:	1184f62e 	bgeu	r2,r6,80408c <_dtoa_r+0x1720>
  802cb4:	00c00044 	movi	r3,1
  802cb8:	00800104 	movi	r2,4
  802cbc:	1085883a 	add	r2,r2,r2
  802cc0:	11000504 	addi	r4,r2,20
  802cc4:	180b883a 	mov	r5,r3
  802cc8:	18c00044 	addi	r3,r3,1
  802ccc:	313ffb2e 	bgeu	r6,r4,802cbc <__alt_data_end+0xff802cbc>
  802cd0:	81401115 	stw	r5,68(r16)
  802cd4:	8009883a 	mov	r4,r16
  802cd8:	08059e80 	call	8059e8 <_Balloc>
  802cdc:	d8800715 	stw	r2,28(sp)
  802ce0:	80801015 	stw	r2,64(r16)
  802ce4:	00800384 	movi	r2,14
  802ce8:	1440fd36 	bltu	r2,r17,8030e0 <_dtoa_r+0x774>
  802cec:	a000fc26 	beq	r20,zero,8030e0 <_dtoa_r+0x774>
  802cf0:	d8800517 	ldw	r2,20(sp)
  802cf4:	0083b90e 	bge	zero,r2,803bdc <_dtoa_r+0x1270>
  802cf8:	d8c00517 	ldw	r3,20(sp)
  802cfc:	108003cc 	andi	r2,r2,15
  802d00:	100490fa 	slli	r2,r2,3
  802d04:	182fd13a 	srai	r23,r3,4
  802d08:	00c02074 	movhi	r3,129
  802d0c:	18c2a604 	addi	r3,r3,2712
  802d10:	1885883a 	add	r2,r3,r2
  802d14:	b8c0040c 	andi	r3,r23,16
  802d18:	12c00017 	ldw	r11,0(r2)
  802d1c:	12800117 	ldw	r10,4(r2)
  802d20:	18039726 	beq	r3,zero,803b80 <_dtoa_r+0x1214>
  802d24:	00802074 	movhi	r2,129
  802d28:	10829c04 	addi	r2,r2,2672
  802d2c:	11800817 	ldw	r6,32(r2)
  802d30:	11c00917 	ldw	r7,36(r2)
  802d34:	9009883a 	mov	r4,r18
  802d38:	980b883a 	mov	r5,r19
  802d3c:	da801615 	stw	r10,88(sp)
  802d40:	dac01515 	stw	r11,84(sp)
  802d44:	080ab200 	call	80ab20 <__divdf3>
  802d48:	da801617 	ldw	r10,88(sp)
  802d4c:	dac01517 	ldw	r11,84(sp)
  802d50:	bdc003cc 	andi	r23,r23,15
  802d54:	044000c4 	movi	r17,3
  802d58:	d8800e15 	stw	r2,56(sp)
  802d5c:	182b883a 	mov	r21,r3
  802d60:	b8001126 	beq	r23,zero,802da8 <_dtoa_r+0x43c>
  802d64:	05002074 	movhi	r20,129
  802d68:	a5029c04 	addi	r20,r20,2672
  802d6c:	5805883a 	mov	r2,r11
  802d70:	5007883a 	mov	r3,r10
  802d74:	b980004c 	andi	r6,r23,1
  802d78:	1009883a 	mov	r4,r2
  802d7c:	b82fd07a 	srai	r23,r23,1
  802d80:	180b883a 	mov	r5,r3
  802d84:	30000426 	beq	r6,zero,802d98 <_dtoa_r+0x42c>
  802d88:	a1800017 	ldw	r6,0(r20)
  802d8c:	a1c00117 	ldw	r7,4(r20)
  802d90:	8c400044 	addi	r17,r17,1
  802d94:	080b6300 	call	80b630 <__muldf3>
  802d98:	a5000204 	addi	r20,r20,8
  802d9c:	b83ff51e 	bne	r23,zero,802d74 <__alt_data_end+0xff802d74>
  802da0:	1017883a 	mov	r11,r2
  802da4:	1815883a 	mov	r10,r3
  802da8:	d9000e17 	ldw	r4,56(sp)
  802dac:	a80b883a 	mov	r5,r21
  802db0:	580d883a 	mov	r6,r11
  802db4:	500f883a 	mov	r7,r10
  802db8:	080ab200 	call	80ab20 <__divdf3>
  802dbc:	1029883a 	mov	r20,r2
  802dc0:	182b883a 	mov	r21,r3
  802dc4:	d9800d17 	ldw	r6,52(sp)
  802dc8:	30000626 	beq	r6,zero,802de4 <_dtoa_r+0x478>
  802dcc:	a009883a 	mov	r4,r20
  802dd0:	a80b883a 	mov	r5,r21
  802dd4:	000d883a 	mov	r6,zero
  802dd8:	01cffc34 	movhi	r7,16368
  802ddc:	080b5500 	call	80b550 <__ledf2>
  802de0:	10043216 	blt	r2,zero,803eac <_dtoa_r+0x1540>
  802de4:	8809883a 	mov	r4,r17
  802de8:	080c6ac0 	call	80c6ac <__floatsidf>
  802dec:	1009883a 	mov	r4,r2
  802df0:	180b883a 	mov	r5,r3
  802df4:	a00d883a 	mov	r6,r20
  802df8:	a80f883a 	mov	r7,r21
  802dfc:	080b6300 	call	80b630 <__muldf3>
  802e00:	000d883a 	mov	r6,zero
  802e04:	1009883a 	mov	r4,r2
  802e08:	180b883a 	mov	r5,r3
  802e0c:	01d00734 	movhi	r7,16412
  802e10:	080a2840 	call	80a284 <__adddf3>
  802e14:	1023883a 	mov	r17,r2
  802e18:	d9800617 	ldw	r6,24(sp)
  802e1c:	00bf3034 	movhi	r2,64704
  802e20:	1885883a 	add	r2,r3,r2
  802e24:	d8800e15 	stw	r2,56(sp)
  802e28:	30032e26 	beq	r6,zero,803ae4 <_dtoa_r+0x1178>
  802e2c:	d8c00517 	ldw	r3,20(sp)
  802e30:	da800617 	ldw	r10,24(sp)
  802e34:	d8c01215 	stw	r3,72(sp)
  802e38:	d9000b17 	ldw	r4,44(sp)
  802e3c:	2003b026 	beq	r4,zero,803d00 <_dtoa_r+0x1394>
  802e40:	50bfffc4 	addi	r2,r10,-1
  802e44:	100490fa 	slli	r2,r2,3
  802e48:	00c02074 	movhi	r3,129
  802e4c:	18c2a604 	addi	r3,r3,2712
  802e50:	1885883a 	add	r2,r3,r2
  802e54:	11800017 	ldw	r6,0(r2)
  802e58:	11c00117 	ldw	r7,4(r2)
  802e5c:	d8800717 	ldw	r2,28(sp)
  802e60:	0009883a 	mov	r4,zero
  802e64:	014ff834 	movhi	r5,16352
  802e68:	da801615 	stw	r10,88(sp)
  802e6c:	15c00044 	addi	r23,r2,1
  802e70:	080ab200 	call	80ab20 <__divdf3>
  802e74:	d9c00e17 	ldw	r7,56(sp)
  802e78:	880d883a 	mov	r6,r17
  802e7c:	1009883a 	mov	r4,r2
  802e80:	180b883a 	mov	r5,r3
  802e84:	080bd540 	call	80bd54 <__subdf3>
  802e88:	a80b883a 	mov	r5,r21
  802e8c:	a009883a 	mov	r4,r20
  802e90:	d8c01015 	stw	r3,64(sp)
  802e94:	d8800e15 	stw	r2,56(sp)
  802e98:	080c6240 	call	80c624 <__fixdfsi>
  802e9c:	1009883a 	mov	r4,r2
  802ea0:	d8801715 	stw	r2,92(sp)
  802ea4:	080c6ac0 	call	80c6ac <__floatsidf>
  802ea8:	a009883a 	mov	r4,r20
  802eac:	a80b883a 	mov	r5,r21
  802eb0:	100d883a 	mov	r6,r2
  802eb4:	180f883a 	mov	r7,r3
  802eb8:	080bd540 	call	80bd54 <__subdf3>
  802ebc:	da001717 	ldw	r8,92(sp)
  802ec0:	1829883a 	mov	r20,r3
  802ec4:	d8c00717 	ldw	r3,28(sp)
  802ec8:	d9000e17 	ldw	r4,56(sp)
  802ecc:	d9401017 	ldw	r5,64(sp)
  802ed0:	42000c04 	addi	r8,r8,48
  802ed4:	1023883a 	mov	r17,r2
  802ed8:	1a000005 	stb	r8,0(r3)
  802edc:	880d883a 	mov	r6,r17
  802ee0:	a00f883a 	mov	r7,r20
  802ee4:	402b883a 	mov	r21,r8
  802ee8:	080b4700 	call	80b470 <__gedf2>
  802eec:	00844516 	blt	zero,r2,804004 <_dtoa_r+0x1698>
  802ef0:	0009883a 	mov	r4,zero
  802ef4:	014ffc34 	movhi	r5,16368
  802ef8:	880d883a 	mov	r6,r17
  802efc:	a00f883a 	mov	r7,r20
  802f00:	080bd540 	call	80bd54 <__subdf3>
  802f04:	d9000e17 	ldw	r4,56(sp)
  802f08:	d9401017 	ldw	r5,64(sp)
  802f0c:	100d883a 	mov	r6,r2
  802f10:	180f883a 	mov	r7,r3
  802f14:	080b4700 	call	80b470 <__gedf2>
  802f18:	da801617 	ldw	r10,88(sp)
  802f1c:	00843616 	blt	zero,r2,803ff8 <_dtoa_r+0x168c>
  802f20:	00800044 	movi	r2,1
  802f24:	12806e0e 	bge	r2,r10,8030e0 <_dtoa_r+0x774>
  802f28:	d9000717 	ldw	r4,28(sp)
  802f2c:	dd801315 	stw	r22,76(sp)
  802f30:	dc001115 	stw	r16,68(sp)
  802f34:	2295883a 	add	r10,r4,r10
  802f38:	dcc01415 	stw	r19,80(sp)
  802f3c:	502d883a 	mov	r22,r10
  802f40:	dcc01017 	ldw	r19,64(sp)
  802f44:	b821883a 	mov	r16,r23
  802f48:	dc801015 	stw	r18,64(sp)
  802f4c:	dc800e17 	ldw	r18,56(sp)
  802f50:	00000906 	br	802f78 <_dtoa_r+0x60c>
  802f54:	080bd540 	call	80bd54 <__subdf3>
  802f58:	1009883a 	mov	r4,r2
  802f5c:	180b883a 	mov	r5,r3
  802f60:	900d883a 	mov	r6,r18
  802f64:	980f883a 	mov	r7,r19
  802f68:	080b5500 	call	80b550 <__ledf2>
  802f6c:	10040e16 	blt	r2,zero,803fa8 <_dtoa_r+0x163c>
  802f70:	b821883a 	mov	r16,r23
  802f74:	bd841026 	beq	r23,r22,803fb8 <_dtoa_r+0x164c>
  802f78:	9009883a 	mov	r4,r18
  802f7c:	980b883a 	mov	r5,r19
  802f80:	000d883a 	mov	r6,zero
  802f84:	01d00934 	movhi	r7,16420
  802f88:	080b6300 	call	80b630 <__muldf3>
  802f8c:	000d883a 	mov	r6,zero
  802f90:	01d00934 	movhi	r7,16420
  802f94:	8809883a 	mov	r4,r17
  802f98:	a00b883a 	mov	r5,r20
  802f9c:	1025883a 	mov	r18,r2
  802fa0:	1827883a 	mov	r19,r3
  802fa4:	080b6300 	call	80b630 <__muldf3>
  802fa8:	180b883a 	mov	r5,r3
  802fac:	1009883a 	mov	r4,r2
  802fb0:	1823883a 	mov	r17,r3
  802fb4:	1029883a 	mov	r20,r2
  802fb8:	080c6240 	call	80c624 <__fixdfsi>
  802fbc:	1009883a 	mov	r4,r2
  802fc0:	102b883a 	mov	r21,r2
  802fc4:	080c6ac0 	call	80c6ac <__floatsidf>
  802fc8:	a009883a 	mov	r4,r20
  802fcc:	880b883a 	mov	r5,r17
  802fd0:	100d883a 	mov	r6,r2
  802fd4:	180f883a 	mov	r7,r3
  802fd8:	080bd540 	call	80bd54 <__subdf3>
  802fdc:	ad400c04 	addi	r21,r21,48
  802fe0:	1009883a 	mov	r4,r2
  802fe4:	180b883a 	mov	r5,r3
  802fe8:	900d883a 	mov	r6,r18
  802fec:	980f883a 	mov	r7,r19
  802ff0:	85400005 	stb	r21,0(r16)
  802ff4:	1023883a 	mov	r17,r2
  802ff8:	1829883a 	mov	r20,r3
  802ffc:	080b5500 	call	80b550 <__ledf2>
  803000:	bdc00044 	addi	r23,r23,1
  803004:	0009883a 	mov	r4,zero
  803008:	014ffc34 	movhi	r5,16368
  80300c:	880d883a 	mov	r6,r17
  803010:	a00f883a 	mov	r7,r20
  803014:	103fcf0e 	bge	r2,zero,802f54 <__alt_data_end+0xff802f54>
  803018:	d9801217 	ldw	r6,72(sp)
  80301c:	dc001117 	ldw	r16,68(sp)
  803020:	d9800515 	stw	r6,20(sp)
  803024:	8009883a 	mov	r4,r16
  803028:	e00b883a 	mov	r5,fp
  80302c:	0805a900 	call	805a90 <_Bfree>
  803030:	d8c00517 	ldw	r3,20(sp)
  803034:	d9002317 	ldw	r4,140(sp)
  803038:	d9802517 	ldw	r6,148(sp)
  80303c:	b8000005 	stb	zero,0(r23)
  803040:	18800044 	addi	r2,r3,1
  803044:	20800015 	stw	r2,0(r4)
  803048:	30027226 	beq	r6,zero,803a14 <_dtoa_r+0x10a8>
  80304c:	35c00015 	stw	r23,0(r6)
  803050:	d8800717 	ldw	r2,28(sp)
  803054:	003e7406 	br	802a28 <__alt_data_end+0xff802a28>
  803058:	00800434 	movhi	r2,16
  80305c:	10bfffc4 	addi	r2,r2,-1
  803060:	a8aa703a 	and	r21,r21,r2
  803064:	a83e801e 	bne	r21,zero,802a68 <__alt_data_end+0xff802a68>
  803068:	00802074 	movhi	r2,129
  80306c:	10828704 	addi	r2,r2,2588
  803070:	003e7f06 	br	802a70 <__alt_data_end+0xff802a70>
  803074:	10c00204 	addi	r3,r2,8
  803078:	003e8206 	br	802a84 <__alt_data_end+0xff802a84>
  80307c:	01400434 	movhi	r5,16
  803080:	297fffc4 	addi	r5,r5,-1
  803084:	994a703a 	and	r5,r19,r5
  803088:	9009883a 	mov	r4,r18
  80308c:	8c7f0044 	addi	r17,r17,-1023
  803090:	294ffc34 	orhi	r5,r5,16368
  803094:	dd000217 	ldw	r20,8(sp)
  803098:	d8000f15 	stw	zero,60(sp)
  80309c:	003e9f06 	br	802b1c <__alt_data_end+0xff802b1c>
  8030a0:	00802074 	movhi	r2,129
  8030a4:	10827e04 	addi	r2,r2,2552
  8030a8:	003e5f06 	br	802a28 <__alt_data_end+0xff802a28>
  8030ac:	80001115 	stw	zero,68(r16)
  8030b0:	8009883a 	mov	r4,r16
  8030b4:	000b883a 	mov	r5,zero
  8030b8:	08059e80 	call	8059e8 <_Balloc>
  8030bc:	01bfffc4 	movi	r6,-1
  8030c0:	d8800715 	stw	r2,28(sp)
  8030c4:	80801015 	stw	r2,64(r16)
  8030c8:	00800044 	movi	r2,1
  8030cc:	d9800c15 	stw	r6,48(sp)
  8030d0:	d8800b15 	stw	r2,44(sp)
  8030d4:	d9800615 	stw	r6,24(sp)
  8030d8:	d8002215 	stw	zero,136(sp)
  8030dc:	d8000315 	stw	zero,12(sp)
  8030e0:	d8800117 	ldw	r2,4(sp)
  8030e4:	10008e16 	blt	r2,zero,803320 <_dtoa_r+0x9b4>
  8030e8:	d9000517 	ldw	r4,20(sp)
  8030ec:	00c00384 	movi	r3,14
  8030f0:	19008b16 	blt	r3,r4,803320 <_dtoa_r+0x9b4>
  8030f4:	200490fa 	slli	r2,r4,3
  8030f8:	00c02074 	movhi	r3,129
  8030fc:	d9802217 	ldw	r6,136(sp)
  803100:	18c2a604 	addi	r3,r3,2712
  803104:	1885883a 	add	r2,r3,r2
  803108:	14400017 	ldw	r17,0(r2)
  80310c:	15000117 	ldw	r20,4(r2)
  803110:	3001c716 	blt	r6,zero,803830 <_dtoa_r+0xec4>
  803114:	880d883a 	mov	r6,r17
  803118:	a00f883a 	mov	r7,r20
  80311c:	9009883a 	mov	r4,r18
  803120:	980b883a 	mov	r5,r19
  803124:	080ab200 	call	80ab20 <__divdf3>
  803128:	180b883a 	mov	r5,r3
  80312c:	1009883a 	mov	r4,r2
  803130:	080c6240 	call	80c624 <__fixdfsi>
  803134:	1009883a 	mov	r4,r2
  803138:	102d883a 	mov	r22,r2
  80313c:	080c6ac0 	call	80c6ac <__floatsidf>
  803140:	1009883a 	mov	r4,r2
  803144:	180b883a 	mov	r5,r3
  803148:	880d883a 	mov	r6,r17
  80314c:	a00f883a 	mov	r7,r20
  803150:	080b6300 	call	80b630 <__muldf3>
  803154:	9009883a 	mov	r4,r18
  803158:	980b883a 	mov	r5,r19
  80315c:	100d883a 	mov	r6,r2
  803160:	180f883a 	mov	r7,r3
  803164:	080bd540 	call	80bd54 <__subdf3>
  803168:	d9000717 	ldw	r4,28(sp)
  80316c:	d9800617 	ldw	r6,24(sp)
  803170:	180b883a 	mov	r5,r3
  803174:	b0c00c04 	addi	r3,r22,48
  803178:	20c00005 	stb	r3,0(r4)
  80317c:	25c00044 	addi	r23,r4,1
  803180:	01000044 	movi	r4,1
  803184:	1011883a 	mov	r8,r2
  803188:	2807883a 	mov	r3,r5
  80318c:	31003d26 	beq	r6,r4,803284 <_dtoa_r+0x918>
  803190:	000d883a 	mov	r6,zero
  803194:	01d00934 	movhi	r7,16420
  803198:	1009883a 	mov	r4,r2
  80319c:	080b6300 	call	80b630 <__muldf3>
  8031a0:	1009883a 	mov	r4,r2
  8031a4:	180b883a 	mov	r5,r3
  8031a8:	000d883a 	mov	r6,zero
  8031ac:	000f883a 	mov	r7,zero
  8031b0:	1027883a 	mov	r19,r2
  8031b4:	182b883a 	mov	r21,r3
  8031b8:	080b3ec0 	call	80b3ec <__eqdf2>
  8031bc:	103f9926 	beq	r2,zero,803024 <__alt_data_end+0xff803024>
  8031c0:	d8c00617 	ldw	r3,24(sp)
  8031c4:	d9000717 	ldw	r4,28(sp)
  8031c8:	b825883a 	mov	r18,r23
  8031cc:	18bfffc4 	addi	r2,r3,-1
  8031d0:	20ad883a 	add	r22,r4,r2
  8031d4:	dc000315 	stw	r16,12(sp)
  8031d8:	00000a06 	br	803204 <_dtoa_r+0x898>
  8031dc:	080b6300 	call	80b630 <__muldf3>
  8031e0:	1009883a 	mov	r4,r2
  8031e4:	180b883a 	mov	r5,r3
  8031e8:	000d883a 	mov	r6,zero
  8031ec:	000f883a 	mov	r7,zero
  8031f0:	1027883a 	mov	r19,r2
  8031f4:	182b883a 	mov	r21,r3
  8031f8:	b825883a 	mov	r18,r23
  8031fc:	080b3ec0 	call	80b3ec <__eqdf2>
  803200:	10022626 	beq	r2,zero,803a9c <_dtoa_r+0x1130>
  803204:	880d883a 	mov	r6,r17
  803208:	a00f883a 	mov	r7,r20
  80320c:	9809883a 	mov	r4,r19
  803210:	a80b883a 	mov	r5,r21
  803214:	080ab200 	call	80ab20 <__divdf3>
  803218:	180b883a 	mov	r5,r3
  80321c:	1009883a 	mov	r4,r2
  803220:	080c6240 	call	80c624 <__fixdfsi>
  803224:	1009883a 	mov	r4,r2
  803228:	1021883a 	mov	r16,r2
  80322c:	080c6ac0 	call	80c6ac <__floatsidf>
  803230:	1009883a 	mov	r4,r2
  803234:	180b883a 	mov	r5,r3
  803238:	880d883a 	mov	r6,r17
  80323c:	a00f883a 	mov	r7,r20
  803240:	080b6300 	call	80b630 <__muldf3>
  803244:	9809883a 	mov	r4,r19
  803248:	a80b883a 	mov	r5,r21
  80324c:	100d883a 	mov	r6,r2
  803250:	180f883a 	mov	r7,r3
  803254:	080bd540 	call	80bd54 <__subdf3>
  803258:	82000c04 	addi	r8,r16,48
  80325c:	92000005 	stb	r8,0(r18)
  803260:	1009883a 	mov	r4,r2
  803264:	180b883a 	mov	r5,r3
  803268:	000d883a 	mov	r6,zero
  80326c:	01d00934 	movhi	r7,16420
  803270:	1011883a 	mov	r8,r2
  803274:	bdc00044 	addi	r23,r23,1
  803278:	95bfd81e 	bne	r18,r22,8031dc <__alt_data_end+0xff8031dc>
  80327c:	802d883a 	mov	r22,r16
  803280:	dc000317 	ldw	r16,12(sp)
  803284:	4009883a 	mov	r4,r8
  803288:	180b883a 	mov	r5,r3
  80328c:	400d883a 	mov	r6,r8
  803290:	180f883a 	mov	r7,r3
  803294:	080a2840 	call	80a284 <__adddf3>
  803298:	8809883a 	mov	r4,r17
  80329c:	a00b883a 	mov	r5,r20
  8032a0:	100d883a 	mov	r6,r2
  8032a4:	180f883a 	mov	r7,r3
  8032a8:	1027883a 	mov	r19,r2
  8032ac:	1825883a 	mov	r18,r3
  8032b0:	080b5500 	call	80b550 <__ledf2>
  8032b4:	10000816 	blt	r2,zero,8032d8 <_dtoa_r+0x96c>
  8032b8:	8809883a 	mov	r4,r17
  8032bc:	a00b883a 	mov	r5,r20
  8032c0:	980d883a 	mov	r6,r19
  8032c4:	900f883a 	mov	r7,r18
  8032c8:	080b3ec0 	call	80b3ec <__eqdf2>
  8032cc:	103f551e 	bne	r2,zero,803024 <__alt_data_end+0xff803024>
  8032d0:	b580004c 	andi	r22,r22,1
  8032d4:	b03f5326 	beq	r22,zero,803024 <__alt_data_end+0xff803024>
  8032d8:	bd7fffc3 	ldbu	r21,-1(r23)
  8032dc:	b8bfffc4 	addi	r2,r23,-1
  8032e0:	1007883a 	mov	r3,r2
  8032e4:	01400e44 	movi	r5,57
  8032e8:	d9800717 	ldw	r6,28(sp)
  8032ec:	00000506 	br	803304 <_dtoa_r+0x998>
  8032f0:	18ffffc4 	addi	r3,r3,-1
  8032f4:	30825e26 	beq	r6,r2,803c70 <_dtoa_r+0x1304>
  8032f8:	1d400003 	ldbu	r21,0(r3)
  8032fc:	102f883a 	mov	r23,r2
  803300:	10bfffc4 	addi	r2,r2,-1
  803304:	a9003fcc 	andi	r4,r21,255
  803308:	2100201c 	xori	r4,r4,128
  80330c:	213fe004 	addi	r4,r4,-128
  803310:	217ff726 	beq	r4,r5,8032f0 <__alt_data_end+0xff8032f0>
  803314:	aa000044 	addi	r8,r21,1
  803318:	12000005 	stb	r8,0(r2)
  80331c:	003f4106 	br	803024 <__alt_data_end+0xff803024>
  803320:	d8c00b17 	ldw	r3,44(sp)
  803324:	18006726 	beq	r3,zero,8034c4 <_dtoa_r+0xb58>
  803328:	d9000317 	ldw	r4,12(sp)
  80332c:	00c00044 	movi	r3,1
  803330:	19016a0e 	bge	r3,r4,8038dc <_dtoa_r+0xf70>
  803334:	d8800617 	ldw	r2,24(sp)
  803338:	d8c00917 	ldw	r3,36(sp)
  80333c:	157fffc4 	addi	r21,r2,-1
  803340:	1d420716 	blt	r3,r21,803b60 <_dtoa_r+0x11f4>
  803344:	1d6bc83a 	sub	r21,r3,r21
  803348:	d8800617 	ldw	r2,24(sp)
  80334c:	1002c716 	blt	r2,zero,803e6c <_dtoa_r+0x1500>
  803350:	dd000817 	ldw	r20,32(sp)
  803354:	d8800617 	ldw	r2,24(sp)
  803358:	d9800817 	ldw	r6,32(sp)
  80335c:	8009883a 	mov	r4,r16
  803360:	01400044 	movi	r5,1
  803364:	308d883a 	add	r6,r6,r2
  803368:	d9800815 	stw	r6,32(sp)
  80336c:	b0ad883a 	add	r22,r22,r2
  803370:	0805df40 	call	805df4 <__i2b>
  803374:	1023883a 	mov	r17,r2
  803378:	a0000826 	beq	r20,zero,80339c <_dtoa_r+0xa30>
  80337c:	0580070e 	bge	zero,r22,80339c <_dtoa_r+0xa30>
  803380:	b005883a 	mov	r2,r22
  803384:	a5812016 	blt	r20,r22,803808 <_dtoa_r+0xe9c>
  803388:	d8c00817 	ldw	r3,32(sp)
  80338c:	a0a9c83a 	sub	r20,r20,r2
  803390:	b0adc83a 	sub	r22,r22,r2
  803394:	1887c83a 	sub	r3,r3,r2
  803398:	d8c00815 	stw	r3,32(sp)
  80339c:	d9000917 	ldw	r4,36(sp)
  8033a0:	0100140e 	bge	zero,r4,8033f4 <_dtoa_r+0xa88>
  8033a4:	d9800b17 	ldw	r6,44(sp)
  8033a8:	3001e526 	beq	r6,zero,803b40 <_dtoa_r+0x11d4>
  8033ac:	05400e0e 	bge	zero,r21,8033e8 <_dtoa_r+0xa7c>
  8033b0:	880b883a 	mov	r5,r17
  8033b4:	8009883a 	mov	r4,r16
  8033b8:	a80d883a 	mov	r6,r21
  8033bc:	080602c0 	call	80602c <__pow5mult>
  8033c0:	e00d883a 	mov	r6,fp
  8033c4:	8009883a 	mov	r4,r16
  8033c8:	100b883a 	mov	r5,r2
  8033cc:	1023883a 	mov	r17,r2
  8033d0:	0805e300 	call	805e30 <__multiply>
  8033d4:	102f883a 	mov	r23,r2
  8033d8:	e00b883a 	mov	r5,fp
  8033dc:	8009883a 	mov	r4,r16
  8033e0:	0805a900 	call	805a90 <_Bfree>
  8033e4:	b839883a 	mov	fp,r23
  8033e8:	d8800917 	ldw	r2,36(sp)
  8033ec:	154dc83a 	sub	r6,r2,r21
  8033f0:	3001281e 	bne	r6,zero,803894 <_dtoa_r+0xf28>
  8033f4:	05c00044 	movi	r23,1
  8033f8:	8009883a 	mov	r4,r16
  8033fc:	b80b883a 	mov	r5,r23
  803400:	0805df40 	call	805df4 <__i2b>
  803404:	d8c00a17 	ldw	r3,40(sp)
  803408:	102b883a 	mov	r21,r2
  80340c:	00c0310e 	bge	zero,r3,8034d4 <_dtoa_r+0xb68>
  803410:	8009883a 	mov	r4,r16
  803414:	100b883a 	mov	r5,r2
  803418:	180d883a 	mov	r6,r3
  80341c:	080602c0 	call	80602c <__pow5mult>
  803420:	d9000317 	ldw	r4,12(sp)
  803424:	102b883a 	mov	r21,r2
  803428:	b9011f0e 	bge	r23,r4,8038a8 <_dtoa_r+0xf3c>
  80342c:	0027883a 	mov	r19,zero
  803430:	a8800417 	ldw	r2,16(r21)
  803434:	10800104 	addi	r2,r2,4
  803438:	1085883a 	add	r2,r2,r2
  80343c:	1085883a 	add	r2,r2,r2
  803440:	a885883a 	add	r2,r21,r2
  803444:	11000017 	ldw	r4,0(r2)
  803448:	0805cdc0 	call	805cdc <__hi0bits>
  80344c:	00c00804 	movi	r3,32
  803450:	1885c83a 	sub	r2,r3,r2
  803454:	00002506 	br	8034ec <_dtoa_r+0xb80>
  803458:	01800044 	movi	r6,1
  80345c:	d9800d15 	stw	r6,52(sp)
  803460:	003dec06 	br	802c14 <__alt_data_end+0xff802c14>
  803464:	d8c00817 	ldw	r3,32(sp)
  803468:	d9000517 	ldw	r4,20(sp)
  80346c:	d8000a15 	stw	zero,40(sp)
  803470:	1907c83a 	sub	r3,r3,r4
  803474:	010dc83a 	sub	r6,zero,r4
  803478:	d8c00815 	stw	r3,32(sp)
  80347c:	d9800915 	stw	r6,36(sp)
  803480:	003ded06 	br	802c38 <__alt_data_end+0xff802c38>
  803484:	05adc83a 	sub	r22,zero,r22
  803488:	dd800815 	stw	r22,32(sp)
  80348c:	002d883a 	mov	r22,zero
  803490:	003de406 	br	802c24 <__alt_data_end+0xff802c24>
  803494:	d9000517 	ldw	r4,20(sp)
  803498:	080c6ac0 	call	80c6ac <__floatsidf>
  80349c:	1009883a 	mov	r4,r2
  8034a0:	180b883a 	mov	r5,r3
  8034a4:	b00d883a 	mov	r6,r22
  8034a8:	a80f883a 	mov	r7,r21
  8034ac:	080b3ec0 	call	80b3ec <__eqdf2>
  8034b0:	103dc726 	beq	r2,zero,802bd0 <__alt_data_end+0xff802bd0>
  8034b4:	d8800517 	ldw	r2,20(sp)
  8034b8:	10bfffc4 	addi	r2,r2,-1
  8034bc:	d8800515 	stw	r2,20(sp)
  8034c0:	003dc306 	br	802bd0 <__alt_data_end+0xff802bd0>
  8034c4:	dd400917 	ldw	r21,36(sp)
  8034c8:	dd000817 	ldw	r20,32(sp)
  8034cc:	0023883a 	mov	r17,zero
  8034d0:	003fa906 	br	803378 <__alt_data_end+0xff803378>
  8034d4:	d9800317 	ldw	r6,12(sp)
  8034d8:	b981670e 	bge	r23,r6,803a78 <_dtoa_r+0x110c>
  8034dc:	0027883a 	mov	r19,zero
  8034e0:	d8c00a17 	ldw	r3,40(sp)
  8034e4:	183fd21e 	bne	r3,zero,803430 <__alt_data_end+0xff803430>
  8034e8:	00800044 	movi	r2,1
  8034ec:	1585883a 	add	r2,r2,r22
  8034f0:	108007cc 	andi	r2,r2,31
  8034f4:	10005f26 	beq	r2,zero,803674 <_dtoa_r+0xd08>
  8034f8:	00c00804 	movi	r3,32
  8034fc:	1887c83a 	sub	r3,r3,r2
  803500:	01000104 	movi	r4,4
  803504:	20c2dd0e 	bge	r4,r3,80407c <_dtoa_r+0x1710>
  803508:	d9000817 	ldw	r4,32(sp)
  80350c:	00c00704 	movi	r3,28
  803510:	1885c83a 	sub	r2,r3,r2
  803514:	2089883a 	add	r4,r4,r2
  803518:	d9000815 	stw	r4,32(sp)
  80351c:	a0a9883a 	add	r20,r20,r2
  803520:	b0ad883a 	add	r22,r22,r2
  803524:	d8800817 	ldw	r2,32(sp)
  803528:	0080050e 	bge	zero,r2,803540 <_dtoa_r+0xbd4>
  80352c:	e00b883a 	mov	r5,fp
  803530:	8009883a 	mov	r4,r16
  803534:	100d883a 	mov	r6,r2
  803538:	080616c0 	call	80616c <__lshift>
  80353c:	1039883a 	mov	fp,r2
  803540:	0580050e 	bge	zero,r22,803558 <_dtoa_r+0xbec>
  803544:	a80b883a 	mov	r5,r21
  803548:	8009883a 	mov	r4,r16
  80354c:	b00d883a 	mov	r6,r22
  803550:	080616c0 	call	80616c <__lshift>
  803554:	102b883a 	mov	r21,r2
  803558:	d8c00d17 	ldw	r3,52(sp)
  80355c:	1801161e 	bne	r3,zero,8039b8 <_dtoa_r+0x104c>
  803560:	d8c00617 	ldw	r3,24(sp)
  803564:	00c12d0e 	bge	zero,r3,803a1c <_dtoa_r+0x10b0>
  803568:	d8c00b17 	ldw	r3,44(sp)
  80356c:	1800571e 	bne	r3,zero,8036cc <_dtoa_r+0xd60>
  803570:	dc800717 	ldw	r18,28(sp)
  803574:	dcc00617 	ldw	r19,24(sp)
  803578:	9029883a 	mov	r20,r18
  80357c:	00000206 	br	803588 <_dtoa_r+0xc1c>
  803580:	0805ab80 	call	805ab8 <__multadd>
  803584:	1039883a 	mov	fp,r2
  803588:	e009883a 	mov	r4,fp
  80358c:	a80b883a 	mov	r5,r21
  803590:	080276c0 	call	80276c <quorem>
  803594:	10800c04 	addi	r2,r2,48
  803598:	90800005 	stb	r2,0(r18)
  80359c:	94800044 	addi	r18,r18,1
  8035a0:	9507c83a 	sub	r3,r18,r20
  8035a4:	8009883a 	mov	r4,r16
  8035a8:	e00b883a 	mov	r5,fp
  8035ac:	01800284 	movi	r6,10
  8035b0:	000f883a 	mov	r7,zero
  8035b4:	1cfff216 	blt	r3,r19,803580 <__alt_data_end+0xff803580>
  8035b8:	1011883a 	mov	r8,r2
  8035bc:	d8800617 	ldw	r2,24(sp)
  8035c0:	00822e0e 	bge	zero,r2,803e7c <_dtoa_r+0x1510>
  8035c4:	d9000717 	ldw	r4,28(sp)
  8035c8:	0025883a 	mov	r18,zero
  8035cc:	20af883a 	add	r23,r4,r2
  8035d0:	e00b883a 	mov	r5,fp
  8035d4:	01800044 	movi	r6,1
  8035d8:	8009883a 	mov	r4,r16
  8035dc:	da001715 	stw	r8,92(sp)
  8035e0:	080616c0 	call	80616c <__lshift>
  8035e4:	1009883a 	mov	r4,r2
  8035e8:	a80b883a 	mov	r5,r21
  8035ec:	1039883a 	mov	fp,r2
  8035f0:	08062bc0 	call	8062bc <__mcmp>
  8035f4:	da001717 	ldw	r8,92(sp)
  8035f8:	00816e0e 	bge	zero,r2,803bb4 <_dtoa_r+0x1248>
  8035fc:	b93fffc3 	ldbu	r4,-1(r23)
  803600:	b8bfffc4 	addi	r2,r23,-1
  803604:	1007883a 	mov	r3,r2
  803608:	01800e44 	movi	r6,57
  80360c:	d9c00717 	ldw	r7,28(sp)
  803610:	00000506 	br	803628 <_dtoa_r+0xcbc>
  803614:	18ffffc4 	addi	r3,r3,-1
  803618:	38811926 	beq	r7,r2,803a80 <_dtoa_r+0x1114>
  80361c:	19000003 	ldbu	r4,0(r3)
  803620:	102f883a 	mov	r23,r2
  803624:	10bfffc4 	addi	r2,r2,-1
  803628:	21403fcc 	andi	r5,r4,255
  80362c:	2940201c 	xori	r5,r5,128
  803630:	297fe004 	addi	r5,r5,-128
  803634:	29bff726 	beq	r5,r6,803614 <__alt_data_end+0xff803614>
  803638:	21000044 	addi	r4,r4,1
  80363c:	11000005 	stb	r4,0(r2)
  803640:	8009883a 	mov	r4,r16
  803644:	a80b883a 	mov	r5,r21
  803648:	0805a900 	call	805a90 <_Bfree>
  80364c:	883e7526 	beq	r17,zero,803024 <__alt_data_end+0xff803024>
  803650:	90000426 	beq	r18,zero,803664 <_dtoa_r+0xcf8>
  803654:	94400326 	beq	r18,r17,803664 <_dtoa_r+0xcf8>
  803658:	8009883a 	mov	r4,r16
  80365c:	900b883a 	mov	r5,r18
  803660:	0805a900 	call	805a90 <_Bfree>
  803664:	8009883a 	mov	r4,r16
  803668:	880b883a 	mov	r5,r17
  80366c:	0805a900 	call	805a90 <_Bfree>
  803670:	003e6c06 	br	803024 <__alt_data_end+0xff803024>
  803674:	00800704 	movi	r2,28
  803678:	d9800817 	ldw	r6,32(sp)
  80367c:	a0a9883a 	add	r20,r20,r2
  803680:	b0ad883a 	add	r22,r22,r2
  803684:	308d883a 	add	r6,r6,r2
  803688:	d9800815 	stw	r6,32(sp)
  80368c:	003fa506 	br	803524 <__alt_data_end+0xff803524>
  803690:	013efb84 	movi	r4,-1042
  803694:	246bc83a 	sub	r21,r4,r17
  803698:	9548983a 	sll	r4,r18,r21
  80369c:	003d1806 	br	802b00 <__alt_data_end+0xff802b00>
  8036a0:	d8000d15 	stw	zero,52(sp)
  8036a4:	003d5b06 	br	802c14 <__alt_data_end+0xff802c14>
  8036a8:	880b883a 	mov	r5,r17
  8036ac:	8009883a 	mov	r4,r16
  8036b0:	01800284 	movi	r6,10
  8036b4:	000f883a 	mov	r7,zero
  8036b8:	0805ab80 	call	805ab8 <__multadd>
  8036bc:	1023883a 	mov	r17,r2
  8036c0:	d8800c17 	ldw	r2,48(sp)
  8036c4:	0082550e 	bge	zero,r2,80401c <_dtoa_r+0x16b0>
  8036c8:	d8800615 	stw	r2,24(sp)
  8036cc:	0500050e 	bge	zero,r20,8036e4 <_dtoa_r+0xd78>
  8036d0:	880b883a 	mov	r5,r17
  8036d4:	8009883a 	mov	r4,r16
  8036d8:	a00d883a 	mov	r6,r20
  8036dc:	080616c0 	call	80616c <__lshift>
  8036e0:	1023883a 	mov	r17,r2
  8036e4:	98016a1e 	bne	r19,zero,803c90 <_dtoa_r+0x1324>
  8036e8:	8829883a 	mov	r20,r17
  8036ec:	d9000617 	ldw	r4,24(sp)
  8036f0:	dcc00717 	ldw	r19,28(sp)
  8036f4:	9480004c 	andi	r18,r18,1
  8036f8:	20bfffc4 	addi	r2,r4,-1
  8036fc:	9885883a 	add	r2,r19,r2
  803700:	d8800415 	stw	r2,16(sp)
  803704:	dc800615 	stw	r18,24(sp)
  803708:	e009883a 	mov	r4,fp
  80370c:	a80b883a 	mov	r5,r21
  803710:	080276c0 	call	80276c <quorem>
  803714:	e009883a 	mov	r4,fp
  803718:	880b883a 	mov	r5,r17
  80371c:	102f883a 	mov	r23,r2
  803720:	08062bc0 	call	8062bc <__mcmp>
  803724:	8009883a 	mov	r4,r16
  803728:	a80b883a 	mov	r5,r21
  80372c:	a00d883a 	mov	r6,r20
  803730:	102d883a 	mov	r22,r2
  803734:	080631c0 	call	80631c <__mdiff>
  803738:	1007883a 	mov	r3,r2
  80373c:	10800317 	ldw	r2,12(r2)
  803740:	bc800c04 	addi	r18,r23,48
  803744:	1000971e 	bne	r2,zero,8039a4 <_dtoa_r+0x1038>
  803748:	180b883a 	mov	r5,r3
  80374c:	e009883a 	mov	r4,fp
  803750:	d8c01515 	stw	r3,84(sp)
  803754:	08062bc0 	call	8062bc <__mcmp>
  803758:	d8c01517 	ldw	r3,84(sp)
  80375c:	8009883a 	mov	r4,r16
  803760:	d8801515 	stw	r2,84(sp)
  803764:	180b883a 	mov	r5,r3
  803768:	0805a900 	call	805a90 <_Bfree>
  80376c:	d8801517 	ldw	r2,84(sp)
  803770:	1000041e 	bne	r2,zero,803784 <_dtoa_r+0xe18>
  803774:	d9800317 	ldw	r6,12(sp)
  803778:	3000021e 	bne	r6,zero,803784 <_dtoa_r+0xe18>
  80377c:	d8c00617 	ldw	r3,24(sp)
  803780:	18007626 	beq	r3,zero,80395c <_dtoa_r+0xff0>
  803784:	b0005b16 	blt	r22,zero,8038f4 <_dtoa_r+0xf88>
  803788:	b000041e 	bne	r22,zero,80379c <_dtoa_r+0xe30>
  80378c:	d9000317 	ldw	r4,12(sp)
  803790:	2000021e 	bne	r4,zero,80379c <_dtoa_r+0xe30>
  803794:	d8c00617 	ldw	r3,24(sp)
  803798:	18005626 	beq	r3,zero,8038f4 <_dtoa_r+0xf88>
  80379c:	00814d16 	blt	zero,r2,803cd4 <_dtoa_r+0x1368>
  8037a0:	d8c00417 	ldw	r3,16(sp)
  8037a4:	9d800044 	addi	r22,r19,1
  8037a8:	9c800005 	stb	r18,0(r19)
  8037ac:	b02f883a 	mov	r23,r22
  8037b0:	98c14c26 	beq	r19,r3,803ce4 <_dtoa_r+0x1378>
  8037b4:	e00b883a 	mov	r5,fp
  8037b8:	8009883a 	mov	r4,r16
  8037bc:	01800284 	movi	r6,10
  8037c0:	000f883a 	mov	r7,zero
  8037c4:	0805ab80 	call	805ab8 <__multadd>
  8037c8:	1039883a 	mov	fp,r2
  8037cc:	8d006d26 	beq	r17,r20,803984 <_dtoa_r+0x1018>
  8037d0:	880b883a 	mov	r5,r17
  8037d4:	01800284 	movi	r6,10
  8037d8:	000f883a 	mov	r7,zero
  8037dc:	8009883a 	mov	r4,r16
  8037e0:	0805ab80 	call	805ab8 <__multadd>
  8037e4:	a00b883a 	mov	r5,r20
  8037e8:	8009883a 	mov	r4,r16
  8037ec:	01800284 	movi	r6,10
  8037f0:	000f883a 	mov	r7,zero
  8037f4:	1023883a 	mov	r17,r2
  8037f8:	0805ab80 	call	805ab8 <__multadd>
  8037fc:	1029883a 	mov	r20,r2
  803800:	b027883a 	mov	r19,r22
  803804:	003fc006 	br	803708 <__alt_data_end+0xff803708>
  803808:	a005883a 	mov	r2,r20
  80380c:	003ede06 	br	803388 <__alt_data_end+0xff803388>
  803810:	01000044 	movi	r4,1
  803814:	d9000b15 	stw	r4,44(sp)
  803818:	d9802217 	ldw	r6,136(sp)
  80381c:	0180dc0e 	bge	zero,r6,803b90 <_dtoa_r+0x1224>
  803820:	3023883a 	mov	r17,r6
  803824:	d9800c15 	stw	r6,48(sp)
  803828:	d9800615 	stw	r6,24(sp)
  80382c:	003d1e06 	br	802ca8 <__alt_data_end+0xff802ca8>
  803830:	d8800617 	ldw	r2,24(sp)
  803834:	00be3716 	blt	zero,r2,803114 <__alt_data_end+0xff803114>
  803838:	1000be1e 	bne	r2,zero,803b34 <_dtoa_r+0x11c8>
  80383c:	8809883a 	mov	r4,r17
  803840:	a00b883a 	mov	r5,r20
  803844:	000d883a 	mov	r6,zero
  803848:	01d00534 	movhi	r7,16404
  80384c:	080b6300 	call	80b630 <__muldf3>
  803850:	1009883a 	mov	r4,r2
  803854:	180b883a 	mov	r5,r3
  803858:	900d883a 	mov	r6,r18
  80385c:	980f883a 	mov	r7,r19
  803860:	080b4700 	call	80b470 <__gedf2>
  803864:	002b883a 	mov	r21,zero
  803868:	0023883a 	mov	r17,zero
  80386c:	10007a16 	blt	r2,zero,803a58 <_dtoa_r+0x10ec>
  803870:	d9002217 	ldw	r4,136(sp)
  803874:	ddc00717 	ldw	r23,28(sp)
  803878:	0108303a 	nor	r4,zero,r4
  80387c:	d9000515 	stw	r4,20(sp)
  803880:	8009883a 	mov	r4,r16
  803884:	a80b883a 	mov	r5,r21
  803888:	0805a900 	call	805a90 <_Bfree>
  80388c:	883f751e 	bne	r17,zero,803664 <__alt_data_end+0xff803664>
  803890:	003de406 	br	803024 <__alt_data_end+0xff803024>
  803894:	e00b883a 	mov	r5,fp
  803898:	8009883a 	mov	r4,r16
  80389c:	080602c0 	call	80602c <__pow5mult>
  8038a0:	1039883a 	mov	fp,r2
  8038a4:	003ed306 	br	8033f4 <__alt_data_end+0xff8033f4>
  8038a8:	903ee01e 	bne	r18,zero,80342c <__alt_data_end+0xff80342c>
  8038ac:	00800434 	movhi	r2,16
  8038b0:	10bfffc4 	addi	r2,r2,-1
  8038b4:	9884703a 	and	r2,r19,r2
  8038b8:	103f081e 	bne	r2,zero,8034dc <__alt_data_end+0xff8034dc>
  8038bc:	9cdffc2c 	andhi	r19,r19,32752
  8038c0:	983f0626 	beq	r19,zero,8034dc <__alt_data_end+0xff8034dc>
  8038c4:	d8800817 	ldw	r2,32(sp)
  8038c8:	b5800044 	addi	r22,r22,1
  8038cc:	04c00044 	movi	r19,1
  8038d0:	10800044 	addi	r2,r2,1
  8038d4:	d8800815 	stw	r2,32(sp)
  8038d8:	003f0106 	br	8034e0 <__alt_data_end+0xff8034e0>
  8038dc:	d9800f17 	ldw	r6,60(sp)
  8038e0:	30016826 	beq	r6,zero,803e84 <_dtoa_r+0x1518>
  8038e4:	10810cc4 	addi	r2,r2,1075
  8038e8:	dd400917 	ldw	r21,36(sp)
  8038ec:	dd000817 	ldw	r20,32(sp)
  8038f0:	003e9906 	br	803358 <__alt_data_end+0xff803358>
  8038f4:	9011883a 	mov	r8,r18
  8038f8:	4007883a 	mov	r3,r8
  8038fc:	e02d883a 	mov	r22,fp
  803900:	0080100e 	bge	zero,r2,803944 <_dtoa_r+0xfd8>
  803904:	01800044 	movi	r6,1
  803908:	8009883a 	mov	r4,r16
  80390c:	e00b883a 	mov	r5,fp
  803910:	da001515 	stw	r8,84(sp)
  803914:	da001715 	stw	r8,92(sp)
  803918:	080616c0 	call	80616c <__lshift>
  80391c:	1009883a 	mov	r4,r2
  803920:	a80b883a 	mov	r5,r21
  803924:	102d883a 	mov	r22,r2
  803928:	08062bc0 	call	8062bc <__mcmp>
  80392c:	d8c01517 	ldw	r3,84(sp)
  803930:	da001717 	ldw	r8,92(sp)
  803934:	0081a50e 	bge	zero,r2,803fcc <_dtoa_r+0x1660>
  803938:	00800e44 	movi	r2,57
  80393c:	40817b26 	beq	r8,r2,803f2c <_dtoa_r+0x15c0>
  803940:	40c00044 	addi	r3,r8,1
  803944:	8825883a 	mov	r18,r17
  803948:	9dc00044 	addi	r23,r19,1
  80394c:	98c00005 	stb	r3,0(r19)
  803950:	a023883a 	mov	r17,r20
  803954:	b039883a 	mov	fp,r22
  803958:	003f3906 	br	803640 <__alt_data_end+0xff803640>
  80395c:	00800e44 	movi	r2,57
  803960:	9011883a 	mov	r8,r18
  803964:	90817226 	beq	r18,r2,803f30 <_dtoa_r+0x15c4>
  803968:	0580010e 	bge	zero,r22,803970 <_dtoa_r+0x1004>
  80396c:	ba000c44 	addi	r8,r23,49
  803970:	8825883a 	mov	r18,r17
  803974:	9dc00044 	addi	r23,r19,1
  803978:	9a000005 	stb	r8,0(r19)
  80397c:	a023883a 	mov	r17,r20
  803980:	003f2f06 	br	803640 <__alt_data_end+0xff803640>
  803984:	880b883a 	mov	r5,r17
  803988:	8009883a 	mov	r4,r16
  80398c:	01800284 	movi	r6,10
  803990:	000f883a 	mov	r7,zero
  803994:	0805ab80 	call	805ab8 <__multadd>
  803998:	1023883a 	mov	r17,r2
  80399c:	1029883a 	mov	r20,r2
  8039a0:	003f9706 	br	803800 <__alt_data_end+0xff803800>
  8039a4:	8009883a 	mov	r4,r16
  8039a8:	180b883a 	mov	r5,r3
  8039ac:	0805a900 	call	805a90 <_Bfree>
  8039b0:	00800044 	movi	r2,1
  8039b4:	003f7306 	br	803784 <__alt_data_end+0xff803784>
  8039b8:	e009883a 	mov	r4,fp
  8039bc:	a80b883a 	mov	r5,r21
  8039c0:	08062bc0 	call	8062bc <__mcmp>
  8039c4:	103ee60e 	bge	r2,zero,803560 <__alt_data_end+0xff803560>
  8039c8:	8009883a 	mov	r4,r16
  8039cc:	e00b883a 	mov	r5,fp
  8039d0:	01800284 	movi	r6,10
  8039d4:	000f883a 	mov	r7,zero
  8039d8:	0805ab80 	call	805ab8 <__multadd>
  8039dc:	d9000517 	ldw	r4,20(sp)
  8039e0:	d9800b17 	ldw	r6,44(sp)
  8039e4:	1039883a 	mov	fp,r2
  8039e8:	213fffc4 	addi	r4,r4,-1
  8039ec:	d9000515 	stw	r4,20(sp)
  8039f0:	303f2d1e 	bne	r6,zero,8036a8 <__alt_data_end+0xff8036a8>
  8039f4:	d9000c17 	ldw	r4,48(sp)
  8039f8:	0101780e 	bge	zero,r4,803fdc <_dtoa_r+0x1670>
  8039fc:	d9000615 	stw	r4,24(sp)
  803a00:	003edb06 	br	803570 <__alt_data_end+0xff803570>
  803a04:	00800084 	movi	r2,2
  803a08:	30818e1e 	bne	r6,r2,804044 <_dtoa_r+0x16d8>
  803a0c:	d8000b15 	stw	zero,44(sp)
  803a10:	003f8106 	br	803818 <__alt_data_end+0xff803818>
  803a14:	d8800717 	ldw	r2,28(sp)
  803a18:	003c0306 	br	802a28 <__alt_data_end+0xff802a28>
  803a1c:	d9000317 	ldw	r4,12(sp)
  803a20:	00800084 	movi	r2,2
  803a24:	113ed00e 	bge	r2,r4,803568 <__alt_data_end+0xff803568>
  803a28:	d8c00617 	ldw	r3,24(sp)
  803a2c:	183f901e 	bne	r3,zero,803870 <__alt_data_end+0xff803870>
  803a30:	a80b883a 	mov	r5,r21
  803a34:	8009883a 	mov	r4,r16
  803a38:	01800144 	movi	r6,5
  803a3c:	000f883a 	mov	r7,zero
  803a40:	0805ab80 	call	805ab8 <__multadd>
  803a44:	e009883a 	mov	r4,fp
  803a48:	100b883a 	mov	r5,r2
  803a4c:	102b883a 	mov	r21,r2
  803a50:	08062bc0 	call	8062bc <__mcmp>
  803a54:	00bf860e 	bge	zero,r2,803870 <__alt_data_end+0xff803870>
  803a58:	d9800717 	ldw	r6,28(sp)
  803a5c:	00800c44 	movi	r2,49
  803a60:	30800005 	stb	r2,0(r6)
  803a64:	d8800517 	ldw	r2,20(sp)
  803a68:	35c00044 	addi	r23,r6,1
  803a6c:	10800044 	addi	r2,r2,1
  803a70:	d8800515 	stw	r2,20(sp)
  803a74:	003f8206 	br	803880 <__alt_data_end+0xff803880>
  803a78:	903e981e 	bne	r18,zero,8034dc <__alt_data_end+0xff8034dc>
  803a7c:	003f8b06 	br	8038ac <__alt_data_end+0xff8038ac>
  803a80:	d9800517 	ldw	r6,20(sp)
  803a84:	d8c00717 	ldw	r3,28(sp)
  803a88:	00800c44 	movi	r2,49
  803a8c:	31800044 	addi	r6,r6,1
  803a90:	d9800515 	stw	r6,20(sp)
  803a94:	18800005 	stb	r2,0(r3)
  803a98:	003ee906 	br	803640 <__alt_data_end+0xff803640>
  803a9c:	dc000317 	ldw	r16,12(sp)
  803aa0:	003d6006 	br	803024 <__alt_data_end+0xff803024>
  803aa4:	8809883a 	mov	r4,r17
  803aa8:	080c6ac0 	call	80c6ac <__floatsidf>
  803aac:	a009883a 	mov	r4,r20
  803ab0:	a80b883a 	mov	r5,r21
  803ab4:	100d883a 	mov	r6,r2
  803ab8:	180f883a 	mov	r7,r3
  803abc:	080b6300 	call	80b630 <__muldf3>
  803ac0:	1009883a 	mov	r4,r2
  803ac4:	180b883a 	mov	r5,r3
  803ac8:	000d883a 	mov	r6,zero
  803acc:	01d00734 	movhi	r7,16412
  803ad0:	080a2840 	call	80a284 <__adddf3>
  803ad4:	1023883a 	mov	r17,r2
  803ad8:	00bf3034 	movhi	r2,64704
  803adc:	1885883a 	add	r2,r3,r2
  803ae0:	d8800e15 	stw	r2,56(sp)
  803ae4:	a009883a 	mov	r4,r20
  803ae8:	a80b883a 	mov	r5,r21
  803aec:	000d883a 	mov	r6,zero
  803af0:	01d00534 	movhi	r7,16404
  803af4:	080bd540 	call	80bd54 <__subdf3>
  803af8:	d9c00e17 	ldw	r7,56(sp)
  803afc:	1009883a 	mov	r4,r2
  803b00:	180b883a 	mov	r5,r3
  803b04:	880d883a 	mov	r6,r17
  803b08:	102b883a 	mov	r21,r2
  803b0c:	1829883a 	mov	r20,r3
  803b10:	080b4700 	call	80b470 <__gedf2>
  803b14:	00807716 	blt	zero,r2,803cf4 <_dtoa_r+0x1388>
  803b18:	d8800e17 	ldw	r2,56(sp)
  803b1c:	a809883a 	mov	r4,r21
  803b20:	a00b883a 	mov	r5,r20
  803b24:	11e0003c 	xorhi	r7,r2,32768
  803b28:	880d883a 	mov	r6,r17
  803b2c:	080b5500 	call	80b550 <__ledf2>
  803b30:	103d6b0e 	bge	r2,zero,8030e0 <__alt_data_end+0xff8030e0>
  803b34:	002b883a 	mov	r21,zero
  803b38:	0023883a 	mov	r17,zero
  803b3c:	003f4c06 	br	803870 <__alt_data_end+0xff803870>
  803b40:	d9800917 	ldw	r6,36(sp)
  803b44:	e00b883a 	mov	r5,fp
  803b48:	8009883a 	mov	r4,r16
  803b4c:	080602c0 	call	80602c <__pow5mult>
  803b50:	1039883a 	mov	fp,r2
  803b54:	003e2706 	br	8033f4 <__alt_data_end+0xff8033f4>
  803b58:	d8000b15 	stw	zero,44(sp)
  803b5c:	003c4906 	br	802c84 <__alt_data_end+0xff802c84>
  803b60:	d9000917 	ldw	r4,36(sp)
  803b64:	d9800a17 	ldw	r6,40(sp)
  803b68:	dd400915 	stw	r21,36(sp)
  803b6c:	a905c83a 	sub	r2,r21,r4
  803b70:	308d883a 	add	r6,r6,r2
  803b74:	d9800a15 	stw	r6,40(sp)
  803b78:	002b883a 	mov	r21,zero
  803b7c:	003df206 	br	803348 <__alt_data_end+0xff803348>
  803b80:	dc800e15 	stw	r18,56(sp)
  803b84:	982b883a 	mov	r21,r19
  803b88:	04400084 	movi	r17,2
  803b8c:	003c7406 	br	802d60 <__alt_data_end+0xff802d60>
  803b90:	04400044 	movi	r17,1
  803b94:	dc400c15 	stw	r17,48(sp)
  803b98:	dc400615 	stw	r17,24(sp)
  803b9c:	dc402215 	stw	r17,136(sp)
  803ba0:	80001115 	stw	zero,68(r16)
  803ba4:	000b883a 	mov	r5,zero
  803ba8:	003c4a06 	br	802cd4 <__alt_data_end+0xff802cd4>
  803bac:	3023883a 	mov	r17,r6
  803bb0:	003ffb06 	br	803ba0 <__alt_data_end+0xff803ba0>
  803bb4:	1000021e 	bne	r2,zero,803bc0 <_dtoa_r+0x1254>
  803bb8:	4200004c 	andi	r8,r8,1
  803bbc:	403e8f1e 	bne	r8,zero,8035fc <__alt_data_end+0xff8035fc>
  803bc0:	01000c04 	movi	r4,48
  803bc4:	00000106 	br	803bcc <_dtoa_r+0x1260>
  803bc8:	102f883a 	mov	r23,r2
  803bcc:	b8bfffc4 	addi	r2,r23,-1
  803bd0:	10c00007 	ldb	r3,0(r2)
  803bd4:	193ffc26 	beq	r3,r4,803bc8 <__alt_data_end+0xff803bc8>
  803bd8:	003e9906 	br	803640 <__alt_data_end+0xff803640>
  803bdc:	d9000517 	ldw	r4,20(sp)
  803be0:	012fc83a 	sub	r23,zero,r4
  803be4:	b800ad26 	beq	r23,zero,803e9c <_dtoa_r+0x1530>
  803be8:	b88003cc 	andi	r2,r23,15
  803bec:	100490fa 	slli	r2,r2,3
  803bf0:	00c02074 	movhi	r3,129
  803bf4:	18c2a604 	addi	r3,r3,2712
  803bf8:	1885883a 	add	r2,r3,r2
  803bfc:	11800017 	ldw	r6,0(r2)
  803c00:	11c00117 	ldw	r7,4(r2)
  803c04:	b82fd13a 	srai	r23,r23,4
  803c08:	9009883a 	mov	r4,r18
  803c0c:	980b883a 	mov	r5,r19
  803c10:	080b6300 	call	80b630 <__muldf3>
  803c14:	1029883a 	mov	r20,r2
  803c18:	182b883a 	mov	r21,r3
  803c1c:	b800f426 	beq	r23,zero,803ff0 <_dtoa_r+0x1684>
  803c20:	02002074 	movhi	r8,129
  803c24:	42029c04 	addi	r8,r8,2672
  803c28:	8029883a 	mov	r20,r16
  803c2c:	04400084 	movi	r17,2
  803c30:	4021883a 	mov	r16,r8
  803c34:	b980004c 	andi	r6,r23,1
  803c38:	1009883a 	mov	r4,r2
  803c3c:	b82fd07a 	srai	r23,r23,1
  803c40:	180b883a 	mov	r5,r3
  803c44:	30000426 	beq	r6,zero,803c58 <_dtoa_r+0x12ec>
  803c48:	81800017 	ldw	r6,0(r16)
  803c4c:	81c00117 	ldw	r7,4(r16)
  803c50:	8c400044 	addi	r17,r17,1
  803c54:	080b6300 	call	80b630 <__muldf3>
  803c58:	84000204 	addi	r16,r16,8
  803c5c:	b83ff51e 	bne	r23,zero,803c34 <__alt_data_end+0xff803c34>
  803c60:	a021883a 	mov	r16,r20
  803c64:	182b883a 	mov	r21,r3
  803c68:	1029883a 	mov	r20,r2
  803c6c:	003c5506 	br	802dc4 <__alt_data_end+0xff802dc4>
  803c70:	d9800517 	ldw	r6,20(sp)
  803c74:	d9000717 	ldw	r4,28(sp)
  803c78:	00c00c04 	movi	r3,48
  803c7c:	31800044 	addi	r6,r6,1
  803c80:	d9800515 	stw	r6,20(sp)
  803c84:	20c00005 	stb	r3,0(r4)
  803c88:	02000c44 	movi	r8,49
  803c8c:	003da206 	br	803318 <__alt_data_end+0xff803318>
  803c90:	89400117 	ldw	r5,4(r17)
  803c94:	8009883a 	mov	r4,r16
  803c98:	08059e80 	call	8059e8 <_Balloc>
  803c9c:	89800417 	ldw	r6,16(r17)
  803ca0:	11000304 	addi	r4,r2,12
  803ca4:	89400304 	addi	r5,r17,12
  803ca8:	31800084 	addi	r6,r6,2
  803cac:	318d883a 	add	r6,r6,r6
  803cb0:	318d883a 	add	r6,r6,r6
  803cb4:	1027883a 	mov	r19,r2
  803cb8:	080578c0 	call	80578c <memcpy>
  803cbc:	8009883a 	mov	r4,r16
  803cc0:	980b883a 	mov	r5,r19
  803cc4:	01800044 	movi	r6,1
  803cc8:	080616c0 	call	80616c <__lshift>
  803ccc:	1029883a 	mov	r20,r2
  803cd0:	003e8606 	br	8036ec <__alt_data_end+0xff8036ec>
  803cd4:	00800e44 	movi	r2,57
  803cd8:	90809526 	beq	r18,r2,803f30 <_dtoa_r+0x15c4>
  803cdc:	92000044 	addi	r8,r18,1
  803ce0:	003f2306 	br	803970 <__alt_data_end+0xff803970>
  803ce4:	9011883a 	mov	r8,r18
  803ce8:	8825883a 	mov	r18,r17
  803cec:	a023883a 	mov	r17,r20
  803cf0:	003e3706 	br	8035d0 <__alt_data_end+0xff8035d0>
  803cf4:	002b883a 	mov	r21,zero
  803cf8:	0023883a 	mov	r17,zero
  803cfc:	003f5606 	br	803a58 <__alt_data_end+0xff803a58>
  803d00:	51bfffc4 	addi	r6,r10,-1
  803d04:	300490fa 	slli	r2,r6,3
  803d08:	00c02074 	movhi	r3,129
  803d0c:	18c2a604 	addi	r3,r3,2712
  803d10:	1885883a 	add	r2,r3,r2
  803d14:	d9c00e17 	ldw	r7,56(sp)
  803d18:	11000017 	ldw	r4,0(r2)
  803d1c:	11400117 	ldw	r5,4(r2)
  803d20:	d8800717 	ldw	r2,28(sp)
  803d24:	d9801015 	stw	r6,64(sp)
  803d28:	880d883a 	mov	r6,r17
  803d2c:	da801615 	stw	r10,88(sp)
  803d30:	15c00044 	addi	r23,r2,1
  803d34:	080b6300 	call	80b630 <__muldf3>
  803d38:	a80b883a 	mov	r5,r21
  803d3c:	a009883a 	mov	r4,r20
  803d40:	d8c01115 	stw	r3,68(sp)
  803d44:	d8800e15 	stw	r2,56(sp)
  803d48:	080c6240 	call	80c624 <__fixdfsi>
  803d4c:	1009883a 	mov	r4,r2
  803d50:	1023883a 	mov	r17,r2
  803d54:	080c6ac0 	call	80c6ac <__floatsidf>
  803d58:	a009883a 	mov	r4,r20
  803d5c:	a80b883a 	mov	r5,r21
  803d60:	100d883a 	mov	r6,r2
  803d64:	180f883a 	mov	r7,r3
  803d68:	080bd540 	call	80bd54 <__subdf3>
  803d6c:	1813883a 	mov	r9,r3
  803d70:	d8c00717 	ldw	r3,28(sp)
  803d74:	8c400c04 	addi	r17,r17,48
  803d78:	1011883a 	mov	r8,r2
  803d7c:	1c400005 	stb	r17,0(r3)
  803d80:	da801617 	ldw	r10,88(sp)
  803d84:	00800044 	movi	r2,1
  803d88:	50802326 	beq	r10,r2,803e18 <_dtoa_r+0x14ac>
  803d8c:	d8800717 	ldw	r2,28(sp)
  803d90:	b82b883a 	mov	r21,r23
  803d94:	dc001315 	stw	r16,76(sp)
  803d98:	12a9883a 	add	r20,r2,r10
  803d9c:	4807883a 	mov	r3,r9
  803da0:	4005883a 	mov	r2,r8
  803da4:	dc801415 	stw	r18,80(sp)
  803da8:	000d883a 	mov	r6,zero
  803dac:	01d00934 	movhi	r7,16420
  803db0:	1009883a 	mov	r4,r2
  803db4:	180b883a 	mov	r5,r3
  803db8:	080b6300 	call	80b630 <__muldf3>
  803dbc:	180b883a 	mov	r5,r3
  803dc0:	1009883a 	mov	r4,r2
  803dc4:	1821883a 	mov	r16,r3
  803dc8:	1025883a 	mov	r18,r2
  803dcc:	080c6240 	call	80c624 <__fixdfsi>
  803dd0:	1009883a 	mov	r4,r2
  803dd4:	1023883a 	mov	r17,r2
  803dd8:	080c6ac0 	call	80c6ac <__floatsidf>
  803ddc:	9009883a 	mov	r4,r18
  803de0:	800b883a 	mov	r5,r16
  803de4:	100d883a 	mov	r6,r2
  803de8:	180f883a 	mov	r7,r3
  803dec:	8c400c04 	addi	r17,r17,48
  803df0:	080bd540 	call	80bd54 <__subdf3>
  803df4:	ad400044 	addi	r21,r21,1
  803df8:	ac7fffc5 	stb	r17,-1(r21)
  803dfc:	ad3fea1e 	bne	r21,r20,803da8 <__alt_data_end+0xff803da8>
  803e00:	1813883a 	mov	r9,r3
  803e04:	d8c01017 	ldw	r3,64(sp)
  803e08:	dc001317 	ldw	r16,76(sp)
  803e0c:	dc801417 	ldw	r18,80(sp)
  803e10:	1011883a 	mov	r8,r2
  803e14:	b8ef883a 	add	r23,r23,r3
  803e18:	d9000e17 	ldw	r4,56(sp)
  803e1c:	d9401117 	ldw	r5,68(sp)
  803e20:	000d883a 	mov	r6,zero
  803e24:	01cff834 	movhi	r7,16352
  803e28:	da001715 	stw	r8,92(sp)
  803e2c:	da401515 	stw	r9,84(sp)
  803e30:	080a2840 	call	80a284 <__adddf3>
  803e34:	da001717 	ldw	r8,92(sp)
  803e38:	da401517 	ldw	r9,84(sp)
  803e3c:	1009883a 	mov	r4,r2
  803e40:	400d883a 	mov	r6,r8
  803e44:	480f883a 	mov	r7,r9
  803e48:	180b883a 	mov	r5,r3
  803e4c:	080b5500 	call	80b550 <__ledf2>
  803e50:	da001717 	ldw	r8,92(sp)
  803e54:	da401517 	ldw	r9,84(sp)
  803e58:	10003b0e 	bge	r2,zero,803f48 <_dtoa_r+0x15dc>
  803e5c:	d9001217 	ldw	r4,72(sp)
  803e60:	bd7fffc3 	ldbu	r21,-1(r23)
  803e64:	d9000515 	stw	r4,20(sp)
  803e68:	003d1c06 	br	8032dc <__alt_data_end+0xff8032dc>
  803e6c:	d8c00817 	ldw	r3,32(sp)
  803e70:	18a9c83a 	sub	r20,r3,r2
  803e74:	0005883a 	mov	r2,zero
  803e78:	003d3706 	br	803358 <__alt_data_end+0xff803358>
  803e7c:	00800044 	movi	r2,1
  803e80:	003dd006 	br	8035c4 <__alt_data_end+0xff8035c4>
  803e84:	d8c00217 	ldw	r3,8(sp)
  803e88:	00800d84 	movi	r2,54
  803e8c:	dd400917 	ldw	r21,36(sp)
  803e90:	10c5c83a 	sub	r2,r2,r3
  803e94:	dd000817 	ldw	r20,32(sp)
  803e98:	003d2f06 	br	803358 <__alt_data_end+0xff803358>
  803e9c:	9029883a 	mov	r20,r18
  803ea0:	982b883a 	mov	r21,r19
  803ea4:	04400084 	movi	r17,2
  803ea8:	003bc606 	br	802dc4 <__alt_data_end+0xff802dc4>
  803eac:	d8800617 	ldw	r2,24(sp)
  803eb0:	103efc26 	beq	r2,zero,803aa4 <__alt_data_end+0xff803aa4>
  803eb4:	d8c00c17 	ldw	r3,48(sp)
  803eb8:	00fc890e 	bge	zero,r3,8030e0 <__alt_data_end+0xff8030e0>
  803ebc:	a80b883a 	mov	r5,r21
  803ec0:	a009883a 	mov	r4,r20
  803ec4:	000d883a 	mov	r6,zero
  803ec8:	01d00934 	movhi	r7,16420
  803ecc:	080b6300 	call	80b630 <__muldf3>
  803ed0:	89000044 	addi	r4,r17,1
  803ed4:	1029883a 	mov	r20,r2
  803ed8:	182b883a 	mov	r21,r3
  803edc:	080c6ac0 	call	80c6ac <__floatsidf>
  803ee0:	a009883a 	mov	r4,r20
  803ee4:	a80b883a 	mov	r5,r21
  803ee8:	100d883a 	mov	r6,r2
  803eec:	180f883a 	mov	r7,r3
  803ef0:	080b6300 	call	80b630 <__muldf3>
  803ef4:	1009883a 	mov	r4,r2
  803ef8:	180b883a 	mov	r5,r3
  803efc:	000d883a 	mov	r6,zero
  803f00:	01d00734 	movhi	r7,16412
  803f04:	080a2840 	call	80a284 <__adddf3>
  803f08:	d9000517 	ldw	r4,20(sp)
  803f0c:	1023883a 	mov	r17,r2
  803f10:	00bf3034 	movhi	r2,64704
  803f14:	213fffc4 	addi	r4,r4,-1
  803f18:	1885883a 	add	r2,r3,r2
  803f1c:	d9001215 	stw	r4,72(sp)
  803f20:	d8800e15 	stw	r2,56(sp)
  803f24:	da800c17 	ldw	r10,48(sp)
  803f28:	003bc306 	br	802e38 <__alt_data_end+0xff802e38>
  803f2c:	b039883a 	mov	fp,r22
  803f30:	01000e44 	movi	r4,57
  803f34:	8825883a 	mov	r18,r17
  803f38:	9dc00044 	addi	r23,r19,1
  803f3c:	99000005 	stb	r4,0(r19)
  803f40:	a023883a 	mov	r17,r20
  803f44:	003dae06 	br	803600 <__alt_data_end+0xff803600>
  803f48:	d9800e17 	ldw	r6,56(sp)
  803f4c:	d9c01117 	ldw	r7,68(sp)
  803f50:	0009883a 	mov	r4,zero
  803f54:	014ff834 	movhi	r5,16352
  803f58:	da001715 	stw	r8,92(sp)
  803f5c:	da401515 	stw	r9,84(sp)
  803f60:	080bd540 	call	80bd54 <__subdf3>
  803f64:	da001717 	ldw	r8,92(sp)
  803f68:	da401517 	ldw	r9,84(sp)
  803f6c:	1009883a 	mov	r4,r2
  803f70:	180b883a 	mov	r5,r3
  803f74:	400d883a 	mov	r6,r8
  803f78:	480f883a 	mov	r7,r9
  803f7c:	080b4700 	call	80b470 <__gedf2>
  803f80:	00bc570e 	bge	zero,r2,8030e0 <__alt_data_end+0xff8030e0>
  803f84:	01000c04 	movi	r4,48
  803f88:	00000106 	br	803f90 <_dtoa_r+0x1624>
  803f8c:	102f883a 	mov	r23,r2
  803f90:	b8bfffc4 	addi	r2,r23,-1
  803f94:	10c00007 	ldb	r3,0(r2)
  803f98:	193ffc26 	beq	r3,r4,803f8c <__alt_data_end+0xff803f8c>
  803f9c:	d9801217 	ldw	r6,72(sp)
  803fa0:	d9800515 	stw	r6,20(sp)
  803fa4:	003c1f06 	br	803024 <__alt_data_end+0xff803024>
  803fa8:	d8801217 	ldw	r2,72(sp)
  803fac:	dc001117 	ldw	r16,68(sp)
  803fb0:	d8800515 	stw	r2,20(sp)
  803fb4:	003cc906 	br	8032dc <__alt_data_end+0xff8032dc>
  803fb8:	dd801317 	ldw	r22,76(sp)
  803fbc:	dc001117 	ldw	r16,68(sp)
  803fc0:	dcc01417 	ldw	r19,80(sp)
  803fc4:	dc801017 	ldw	r18,64(sp)
  803fc8:	003c4506 	br	8030e0 <__alt_data_end+0xff8030e0>
  803fcc:	103e5d1e 	bne	r2,zero,803944 <__alt_data_end+0xff803944>
  803fd0:	4080004c 	andi	r2,r8,1
  803fd4:	103e5b26 	beq	r2,zero,803944 <__alt_data_end+0xff803944>
  803fd8:	003e5706 	br	803938 <__alt_data_end+0xff803938>
  803fdc:	d8c00317 	ldw	r3,12(sp)
  803fe0:	00800084 	movi	r2,2
  803fe4:	10c00a16 	blt	r2,r3,804010 <_dtoa_r+0x16a4>
  803fe8:	d9000c17 	ldw	r4,48(sp)
  803fec:	003e8306 	br	8039fc <__alt_data_end+0xff8039fc>
  803ff0:	04400084 	movi	r17,2
  803ff4:	003b7306 	br	802dc4 <__alt_data_end+0xff802dc4>
  803ff8:	d9801217 	ldw	r6,72(sp)
  803ffc:	d9800515 	stw	r6,20(sp)
  804000:	003cb606 	br	8032dc <__alt_data_end+0xff8032dc>
  804004:	d9001217 	ldw	r4,72(sp)
  804008:	d9000515 	stw	r4,20(sp)
  80400c:	003c0506 	br	803024 <__alt_data_end+0xff803024>
  804010:	d9800c17 	ldw	r6,48(sp)
  804014:	d9800615 	stw	r6,24(sp)
  804018:	003e8306 	br	803a28 <__alt_data_end+0xff803a28>
  80401c:	d9800317 	ldw	r6,12(sp)
  804020:	00800084 	movi	r2,2
  804024:	11800216 	blt	r2,r6,804030 <_dtoa_r+0x16c4>
  804028:	d8800c17 	ldw	r2,48(sp)
  80402c:	003da606 	br	8036c8 <__alt_data_end+0xff8036c8>
  804030:	d8800c17 	ldw	r2,48(sp)
  804034:	d8800615 	stw	r2,24(sp)
  804038:	003e7b06 	br	803a28 <__alt_data_end+0xff803a28>
  80403c:	05000044 	movi	r20,1
  804040:	003b0506 	br	802c58 <__alt_data_end+0xff802c58>
  804044:	8009883a 	mov	r4,r16
  804048:	80001115 	stw	zero,68(r16)
  80404c:	000b883a 	mov	r5,zero
  804050:	08059e80 	call	8059e8 <_Balloc>
  804054:	d8800715 	stw	r2,28(sp)
  804058:	d8c00717 	ldw	r3,28(sp)
  80405c:	00bfffc4 	movi	r2,-1
  804060:	01000044 	movi	r4,1
  804064:	d8800c15 	stw	r2,48(sp)
  804068:	80c01015 	stw	r3,64(r16)
  80406c:	d9000b15 	stw	r4,44(sp)
  804070:	d8800615 	stw	r2,24(sp)
  804074:	d8002215 	stw	zero,136(sp)
  804078:	003c1906 	br	8030e0 <__alt_data_end+0xff8030e0>
  80407c:	193d2926 	beq	r3,r4,803524 <__alt_data_end+0xff803524>
  804080:	00c00f04 	movi	r3,60
  804084:	1885c83a 	sub	r2,r3,r2
  804088:	003d7b06 	br	803678 <__alt_data_end+0xff803678>
  80408c:	000b883a 	mov	r5,zero
  804090:	003b1006 	br	802cd4 <__alt_data_end+0xff802cd4>

00804094 <__sflush_r>:
  804094:	2880030b 	ldhu	r2,12(r5)
  804098:	defffb04 	addi	sp,sp,-20
  80409c:	dcc00315 	stw	r19,12(sp)
  8040a0:	dc400115 	stw	r17,4(sp)
  8040a4:	dfc00415 	stw	ra,16(sp)
  8040a8:	dc800215 	stw	r18,8(sp)
  8040ac:	dc000015 	stw	r16,0(sp)
  8040b0:	10c0020c 	andi	r3,r2,8
  8040b4:	2823883a 	mov	r17,r5
  8040b8:	2027883a 	mov	r19,r4
  8040bc:	1800311e 	bne	r3,zero,804184 <__sflush_r+0xf0>
  8040c0:	28c00117 	ldw	r3,4(r5)
  8040c4:	10820014 	ori	r2,r2,2048
  8040c8:	2880030d 	sth	r2,12(r5)
  8040cc:	00c04b0e 	bge	zero,r3,8041fc <__sflush_r+0x168>
  8040d0:	8a000a17 	ldw	r8,40(r17)
  8040d4:	40002326 	beq	r8,zero,804164 <__sflush_r+0xd0>
  8040d8:	9c000017 	ldw	r16,0(r19)
  8040dc:	10c4000c 	andi	r3,r2,4096
  8040e0:	98000015 	stw	zero,0(r19)
  8040e4:	18004826 	beq	r3,zero,804208 <__sflush_r+0x174>
  8040e8:	89801417 	ldw	r6,80(r17)
  8040ec:	10c0010c 	andi	r3,r2,4
  8040f0:	18000626 	beq	r3,zero,80410c <__sflush_r+0x78>
  8040f4:	88c00117 	ldw	r3,4(r17)
  8040f8:	88800c17 	ldw	r2,48(r17)
  8040fc:	30cdc83a 	sub	r6,r6,r3
  804100:	10000226 	beq	r2,zero,80410c <__sflush_r+0x78>
  804104:	88800f17 	ldw	r2,60(r17)
  804108:	308dc83a 	sub	r6,r6,r2
  80410c:	89400717 	ldw	r5,28(r17)
  804110:	9809883a 	mov	r4,r19
  804114:	000f883a 	mov	r7,zero
  804118:	403ee83a 	callr	r8
  80411c:	00ffffc4 	movi	r3,-1
  804120:	10c04426 	beq	r2,r3,804234 <__sflush_r+0x1a0>
  804124:	88c0030b 	ldhu	r3,12(r17)
  804128:	89000417 	ldw	r4,16(r17)
  80412c:	88000115 	stw	zero,4(r17)
  804130:	197dffcc 	andi	r5,r3,63487
  804134:	8940030d 	sth	r5,12(r17)
  804138:	89000015 	stw	r4,0(r17)
  80413c:	18c4000c 	andi	r3,r3,4096
  804140:	18002c1e 	bne	r3,zero,8041f4 <__sflush_r+0x160>
  804144:	89400c17 	ldw	r5,48(r17)
  804148:	9c000015 	stw	r16,0(r19)
  80414c:	28000526 	beq	r5,zero,804164 <__sflush_r+0xd0>
  804150:	88801004 	addi	r2,r17,64
  804154:	28800226 	beq	r5,r2,804160 <__sflush_r+0xcc>
  804158:	9809883a 	mov	r4,r19
  80415c:	08047ec0 	call	8047ec <_free_r>
  804160:	88000c15 	stw	zero,48(r17)
  804164:	0005883a 	mov	r2,zero
  804168:	dfc00417 	ldw	ra,16(sp)
  80416c:	dcc00317 	ldw	r19,12(sp)
  804170:	dc800217 	ldw	r18,8(sp)
  804174:	dc400117 	ldw	r17,4(sp)
  804178:	dc000017 	ldw	r16,0(sp)
  80417c:	dec00504 	addi	sp,sp,20
  804180:	f800283a 	ret
  804184:	2c800417 	ldw	r18,16(r5)
  804188:	903ff626 	beq	r18,zero,804164 <__alt_data_end+0xff804164>
  80418c:	2c000017 	ldw	r16,0(r5)
  804190:	108000cc 	andi	r2,r2,3
  804194:	2c800015 	stw	r18,0(r5)
  804198:	84a1c83a 	sub	r16,r16,r18
  80419c:	1000131e 	bne	r2,zero,8041ec <__sflush_r+0x158>
  8041a0:	28800517 	ldw	r2,20(r5)
  8041a4:	88800215 	stw	r2,8(r17)
  8041a8:	04000316 	blt	zero,r16,8041b8 <__sflush_r+0x124>
  8041ac:	003fed06 	br	804164 <__alt_data_end+0xff804164>
  8041b0:	90a5883a 	add	r18,r18,r2
  8041b4:	043feb0e 	bge	zero,r16,804164 <__alt_data_end+0xff804164>
  8041b8:	88800917 	ldw	r2,36(r17)
  8041bc:	89400717 	ldw	r5,28(r17)
  8041c0:	800f883a 	mov	r7,r16
  8041c4:	900d883a 	mov	r6,r18
  8041c8:	9809883a 	mov	r4,r19
  8041cc:	103ee83a 	callr	r2
  8041d0:	80a1c83a 	sub	r16,r16,r2
  8041d4:	00bff616 	blt	zero,r2,8041b0 <__alt_data_end+0xff8041b0>
  8041d8:	88c0030b 	ldhu	r3,12(r17)
  8041dc:	00bfffc4 	movi	r2,-1
  8041e0:	18c01014 	ori	r3,r3,64
  8041e4:	88c0030d 	sth	r3,12(r17)
  8041e8:	003fdf06 	br	804168 <__alt_data_end+0xff804168>
  8041ec:	0005883a 	mov	r2,zero
  8041f0:	003fec06 	br	8041a4 <__alt_data_end+0xff8041a4>
  8041f4:	88801415 	stw	r2,80(r17)
  8041f8:	003fd206 	br	804144 <__alt_data_end+0xff804144>
  8041fc:	28c00f17 	ldw	r3,60(r5)
  804200:	00ffb316 	blt	zero,r3,8040d0 <__alt_data_end+0xff8040d0>
  804204:	003fd706 	br	804164 <__alt_data_end+0xff804164>
  804208:	89400717 	ldw	r5,28(r17)
  80420c:	000d883a 	mov	r6,zero
  804210:	9809883a 	mov	r4,r19
  804214:	01c00044 	movi	r7,1
  804218:	403ee83a 	callr	r8
  80421c:	100d883a 	mov	r6,r2
  804220:	00bfffc4 	movi	r2,-1
  804224:	30801426 	beq	r6,r2,804278 <__sflush_r+0x1e4>
  804228:	8880030b 	ldhu	r2,12(r17)
  80422c:	8a000a17 	ldw	r8,40(r17)
  804230:	003fae06 	br	8040ec <__alt_data_end+0xff8040ec>
  804234:	98c00017 	ldw	r3,0(r19)
  804238:	183fba26 	beq	r3,zero,804124 <__alt_data_end+0xff804124>
  80423c:	01000744 	movi	r4,29
  804240:	19000626 	beq	r3,r4,80425c <__sflush_r+0x1c8>
  804244:	01000584 	movi	r4,22
  804248:	19000426 	beq	r3,r4,80425c <__sflush_r+0x1c8>
  80424c:	88c0030b 	ldhu	r3,12(r17)
  804250:	18c01014 	ori	r3,r3,64
  804254:	88c0030d 	sth	r3,12(r17)
  804258:	003fc306 	br	804168 <__alt_data_end+0xff804168>
  80425c:	8880030b 	ldhu	r2,12(r17)
  804260:	88c00417 	ldw	r3,16(r17)
  804264:	88000115 	stw	zero,4(r17)
  804268:	10bdffcc 	andi	r2,r2,63487
  80426c:	8880030d 	sth	r2,12(r17)
  804270:	88c00015 	stw	r3,0(r17)
  804274:	003fb306 	br	804144 <__alt_data_end+0xff804144>
  804278:	98800017 	ldw	r2,0(r19)
  80427c:	103fea26 	beq	r2,zero,804228 <__alt_data_end+0xff804228>
  804280:	00c00744 	movi	r3,29
  804284:	10c00226 	beq	r2,r3,804290 <__sflush_r+0x1fc>
  804288:	00c00584 	movi	r3,22
  80428c:	10ffd21e 	bne	r2,r3,8041d8 <__alt_data_end+0xff8041d8>
  804290:	9c000015 	stw	r16,0(r19)
  804294:	0005883a 	mov	r2,zero
  804298:	003fb306 	br	804168 <__alt_data_end+0xff804168>

0080429c <_fflush_r>:
  80429c:	defffd04 	addi	sp,sp,-12
  8042a0:	dc000115 	stw	r16,4(sp)
  8042a4:	dfc00215 	stw	ra,8(sp)
  8042a8:	2021883a 	mov	r16,r4
  8042ac:	20000226 	beq	r4,zero,8042b8 <_fflush_r+0x1c>
  8042b0:	20800e17 	ldw	r2,56(r4)
  8042b4:	10000c26 	beq	r2,zero,8042e8 <_fflush_r+0x4c>
  8042b8:	2880030f 	ldh	r2,12(r5)
  8042bc:	1000051e 	bne	r2,zero,8042d4 <_fflush_r+0x38>
  8042c0:	0005883a 	mov	r2,zero
  8042c4:	dfc00217 	ldw	ra,8(sp)
  8042c8:	dc000117 	ldw	r16,4(sp)
  8042cc:	dec00304 	addi	sp,sp,12
  8042d0:	f800283a 	ret
  8042d4:	8009883a 	mov	r4,r16
  8042d8:	dfc00217 	ldw	ra,8(sp)
  8042dc:	dc000117 	ldw	r16,4(sp)
  8042e0:	dec00304 	addi	sp,sp,12
  8042e4:	08040941 	jmpi	804094 <__sflush_r>
  8042e8:	d9400015 	stw	r5,0(sp)
  8042ec:	08046780 	call	804678 <__sinit>
  8042f0:	d9400017 	ldw	r5,0(sp)
  8042f4:	003ff006 	br	8042b8 <__alt_data_end+0xff8042b8>

008042f8 <fflush>:
  8042f8:	20000526 	beq	r4,zero,804310 <fflush+0x18>
  8042fc:	00802074 	movhi	r2,129
  804300:	108b1c04 	addi	r2,r2,11376
  804304:	200b883a 	mov	r5,r4
  804308:	11000017 	ldw	r4,0(r2)
  80430c:	080429c1 	jmpi	80429c <_fflush_r>
  804310:	00802074 	movhi	r2,129
  804314:	108b1b04 	addi	r2,r2,11372
  804318:	11000017 	ldw	r4,0(r2)
  80431c:	01402034 	movhi	r5,128
  804320:	2950a704 	addi	r5,r5,17052
  804324:	0804ba01 	jmpi	804ba0 <_fwalk_reent>

00804328 <__fp_lock>:
  804328:	0005883a 	mov	r2,zero
  80432c:	f800283a 	ret

00804330 <__fp_unlock>:
  804330:	0005883a 	mov	r2,zero
  804334:	f800283a 	ret

00804338 <_cleanup_r>:
  804338:	01402074 	movhi	r5,129
  80433c:	2960c004 	addi	r5,r5,-32000
  804340:	0804ba01 	jmpi	804ba0 <_fwalk_reent>

00804344 <__sinit.part.1>:
  804344:	defff704 	addi	sp,sp,-36
  804348:	00c02034 	movhi	r3,128
  80434c:	dfc00815 	stw	ra,32(sp)
  804350:	ddc00715 	stw	r23,28(sp)
  804354:	dd800615 	stw	r22,24(sp)
  804358:	dd400515 	stw	r21,20(sp)
  80435c:	dd000415 	stw	r20,16(sp)
  804360:	dcc00315 	stw	r19,12(sp)
  804364:	dc800215 	stw	r18,8(sp)
  804368:	dc400115 	stw	r17,4(sp)
  80436c:	dc000015 	stw	r16,0(sp)
  804370:	18d0ce04 	addi	r3,r3,17208
  804374:	24000117 	ldw	r16,4(r4)
  804378:	20c00f15 	stw	r3,60(r4)
  80437c:	2080bb04 	addi	r2,r4,748
  804380:	00c000c4 	movi	r3,3
  804384:	20c0b915 	stw	r3,740(r4)
  804388:	2080ba15 	stw	r2,744(r4)
  80438c:	2000b815 	stw	zero,736(r4)
  804390:	05c00204 	movi	r23,8
  804394:	00800104 	movi	r2,4
  804398:	2025883a 	mov	r18,r4
  80439c:	b80d883a 	mov	r6,r23
  8043a0:	81001704 	addi	r4,r16,92
  8043a4:	000b883a 	mov	r5,zero
  8043a8:	80000015 	stw	zero,0(r16)
  8043ac:	80000115 	stw	zero,4(r16)
  8043b0:	80000215 	stw	zero,8(r16)
  8043b4:	8080030d 	sth	r2,12(r16)
  8043b8:	80001915 	stw	zero,100(r16)
  8043bc:	8000038d 	sth	zero,14(r16)
  8043c0:	80000415 	stw	zero,16(r16)
  8043c4:	80000515 	stw	zero,20(r16)
  8043c8:	80000615 	stw	zero,24(r16)
  8043cc:	08058c40 	call	8058c4 <memset>
  8043d0:	05802034 	movhi	r22,128
  8043d4:	94400217 	ldw	r17,8(r18)
  8043d8:	05402034 	movhi	r21,128
  8043dc:	05002034 	movhi	r20,128
  8043e0:	04c02034 	movhi	r19,128
  8043e4:	b59a9404 	addi	r22,r22,27216
  8043e8:	ad5aab04 	addi	r21,r21,27308
  8043ec:	a51aca04 	addi	r20,r20,27432
  8043f0:	9cdae104 	addi	r19,r19,27524
  8043f4:	85800815 	stw	r22,32(r16)
  8043f8:	85400915 	stw	r21,36(r16)
  8043fc:	85000a15 	stw	r20,40(r16)
  804400:	84c00b15 	stw	r19,44(r16)
  804404:	84000715 	stw	r16,28(r16)
  804408:	00800284 	movi	r2,10
  80440c:	8880030d 	sth	r2,12(r17)
  804410:	00800044 	movi	r2,1
  804414:	89001704 	addi	r4,r17,92
  804418:	b80d883a 	mov	r6,r23
  80441c:	000b883a 	mov	r5,zero
  804420:	88000015 	stw	zero,0(r17)
  804424:	88000115 	stw	zero,4(r17)
  804428:	88000215 	stw	zero,8(r17)
  80442c:	88001915 	stw	zero,100(r17)
  804430:	8880038d 	sth	r2,14(r17)
  804434:	88000415 	stw	zero,16(r17)
  804438:	88000515 	stw	zero,20(r17)
  80443c:	88000615 	stw	zero,24(r17)
  804440:	08058c40 	call	8058c4 <memset>
  804444:	94000317 	ldw	r16,12(r18)
  804448:	00800484 	movi	r2,18
  80444c:	8c400715 	stw	r17,28(r17)
  804450:	8d800815 	stw	r22,32(r17)
  804454:	8d400915 	stw	r21,36(r17)
  804458:	8d000a15 	stw	r20,40(r17)
  80445c:	8cc00b15 	stw	r19,44(r17)
  804460:	8080030d 	sth	r2,12(r16)
  804464:	00800084 	movi	r2,2
  804468:	80000015 	stw	zero,0(r16)
  80446c:	80000115 	stw	zero,4(r16)
  804470:	80000215 	stw	zero,8(r16)
  804474:	80001915 	stw	zero,100(r16)
  804478:	8080038d 	sth	r2,14(r16)
  80447c:	80000415 	stw	zero,16(r16)
  804480:	80000515 	stw	zero,20(r16)
  804484:	80000615 	stw	zero,24(r16)
  804488:	81001704 	addi	r4,r16,92
  80448c:	000b883a 	mov	r5,zero
  804490:	b80d883a 	mov	r6,r23
  804494:	08058c40 	call	8058c4 <memset>
  804498:	00800044 	movi	r2,1
  80449c:	84000715 	stw	r16,28(r16)
  8044a0:	85800815 	stw	r22,32(r16)
  8044a4:	85400915 	stw	r21,36(r16)
  8044a8:	85000a15 	stw	r20,40(r16)
  8044ac:	84c00b15 	stw	r19,44(r16)
  8044b0:	90800e15 	stw	r2,56(r18)
  8044b4:	dfc00817 	ldw	ra,32(sp)
  8044b8:	ddc00717 	ldw	r23,28(sp)
  8044bc:	dd800617 	ldw	r22,24(sp)
  8044c0:	dd400517 	ldw	r21,20(sp)
  8044c4:	dd000417 	ldw	r20,16(sp)
  8044c8:	dcc00317 	ldw	r19,12(sp)
  8044cc:	dc800217 	ldw	r18,8(sp)
  8044d0:	dc400117 	ldw	r17,4(sp)
  8044d4:	dc000017 	ldw	r16,0(sp)
  8044d8:	dec00904 	addi	sp,sp,36
  8044dc:	f800283a 	ret

008044e0 <__sfmoreglue>:
  8044e0:	defffc04 	addi	sp,sp,-16
  8044e4:	dc400115 	stw	r17,4(sp)
  8044e8:	2c7fffc4 	addi	r17,r5,-1
  8044ec:	8c401a24 	muli	r17,r17,104
  8044f0:	dc800215 	stw	r18,8(sp)
  8044f4:	2825883a 	mov	r18,r5
  8044f8:	89401d04 	addi	r5,r17,116
  8044fc:	dc000015 	stw	r16,0(sp)
  804500:	dfc00315 	stw	ra,12(sp)
  804504:	0804efc0 	call	804efc <_malloc_r>
  804508:	1021883a 	mov	r16,r2
  80450c:	10000726 	beq	r2,zero,80452c <__sfmoreglue+0x4c>
  804510:	11000304 	addi	r4,r2,12
  804514:	10000015 	stw	zero,0(r2)
  804518:	14800115 	stw	r18,4(r2)
  80451c:	11000215 	stw	r4,8(r2)
  804520:	000b883a 	mov	r5,zero
  804524:	89801a04 	addi	r6,r17,104
  804528:	08058c40 	call	8058c4 <memset>
  80452c:	8005883a 	mov	r2,r16
  804530:	dfc00317 	ldw	ra,12(sp)
  804534:	dc800217 	ldw	r18,8(sp)
  804538:	dc400117 	ldw	r17,4(sp)
  80453c:	dc000017 	ldw	r16,0(sp)
  804540:	dec00404 	addi	sp,sp,16
  804544:	f800283a 	ret

00804548 <__sfp>:
  804548:	00802074 	movhi	r2,129
  80454c:	defffb04 	addi	sp,sp,-20
  804550:	108b1b04 	addi	r2,r2,11372
  804554:	dc800215 	stw	r18,8(sp)
  804558:	14800017 	ldw	r18,0(r2)
  80455c:	dcc00315 	stw	r19,12(sp)
  804560:	dfc00415 	stw	ra,16(sp)
  804564:	90800e17 	ldw	r2,56(r18)
  804568:	dc400115 	stw	r17,4(sp)
  80456c:	dc000015 	stw	r16,0(sp)
  804570:	2027883a 	mov	r19,r4
  804574:	1000021e 	bne	r2,zero,804580 <__sfp+0x38>
  804578:	9009883a 	mov	r4,r18
  80457c:	08043440 	call	804344 <__sinit.part.1>
  804580:	9480b804 	addi	r18,r18,736
  804584:	047fffc4 	movi	r17,-1
  804588:	91400117 	ldw	r5,4(r18)
  80458c:	94000217 	ldw	r16,8(r18)
  804590:	297fffc4 	addi	r5,r5,-1
  804594:	28000a16 	blt	r5,zero,8045c0 <__sfp+0x78>
  804598:	8080030f 	ldh	r2,12(r16)
  80459c:	10000c26 	beq	r2,zero,8045d0 <__sfp+0x88>
  8045a0:	80c01d04 	addi	r3,r16,116
  8045a4:	00000206 	br	8045b0 <__sfp+0x68>
  8045a8:	18bfe60f 	ldh	r2,-104(r3)
  8045ac:	10000826 	beq	r2,zero,8045d0 <__sfp+0x88>
  8045b0:	297fffc4 	addi	r5,r5,-1
  8045b4:	1c3ffd04 	addi	r16,r3,-12
  8045b8:	18c01a04 	addi	r3,r3,104
  8045bc:	2c7ffa1e 	bne	r5,r17,8045a8 <__alt_data_end+0xff8045a8>
  8045c0:	90800017 	ldw	r2,0(r18)
  8045c4:	10001d26 	beq	r2,zero,80463c <__sfp+0xf4>
  8045c8:	1025883a 	mov	r18,r2
  8045cc:	003fee06 	br	804588 <__alt_data_end+0xff804588>
  8045d0:	00bfffc4 	movi	r2,-1
  8045d4:	8080038d 	sth	r2,14(r16)
  8045d8:	00800044 	movi	r2,1
  8045dc:	8080030d 	sth	r2,12(r16)
  8045e0:	80001915 	stw	zero,100(r16)
  8045e4:	80000015 	stw	zero,0(r16)
  8045e8:	80000215 	stw	zero,8(r16)
  8045ec:	80000115 	stw	zero,4(r16)
  8045f0:	80000415 	stw	zero,16(r16)
  8045f4:	80000515 	stw	zero,20(r16)
  8045f8:	80000615 	stw	zero,24(r16)
  8045fc:	81001704 	addi	r4,r16,92
  804600:	000b883a 	mov	r5,zero
  804604:	01800204 	movi	r6,8
  804608:	08058c40 	call	8058c4 <memset>
  80460c:	8005883a 	mov	r2,r16
  804610:	80000c15 	stw	zero,48(r16)
  804614:	80000d15 	stw	zero,52(r16)
  804618:	80001115 	stw	zero,68(r16)
  80461c:	80001215 	stw	zero,72(r16)
  804620:	dfc00417 	ldw	ra,16(sp)
  804624:	dcc00317 	ldw	r19,12(sp)
  804628:	dc800217 	ldw	r18,8(sp)
  80462c:	dc400117 	ldw	r17,4(sp)
  804630:	dc000017 	ldw	r16,0(sp)
  804634:	dec00504 	addi	sp,sp,20
  804638:	f800283a 	ret
  80463c:	9809883a 	mov	r4,r19
  804640:	01400104 	movi	r5,4
  804644:	08044e00 	call	8044e0 <__sfmoreglue>
  804648:	90800015 	stw	r2,0(r18)
  80464c:	103fde1e 	bne	r2,zero,8045c8 <__alt_data_end+0xff8045c8>
  804650:	00800304 	movi	r2,12
  804654:	98800015 	stw	r2,0(r19)
  804658:	0005883a 	mov	r2,zero
  80465c:	003ff006 	br	804620 <__alt_data_end+0xff804620>

00804660 <_cleanup>:
  804660:	00802074 	movhi	r2,129
  804664:	108b1b04 	addi	r2,r2,11372
  804668:	11000017 	ldw	r4,0(r2)
  80466c:	01402074 	movhi	r5,129
  804670:	2960c004 	addi	r5,r5,-32000
  804674:	0804ba01 	jmpi	804ba0 <_fwalk_reent>

00804678 <__sinit>:
  804678:	20800e17 	ldw	r2,56(r4)
  80467c:	10000126 	beq	r2,zero,804684 <__sinit+0xc>
  804680:	f800283a 	ret
  804684:	08043441 	jmpi	804344 <__sinit.part.1>

00804688 <__sfp_lock_acquire>:
  804688:	f800283a 	ret

0080468c <__sfp_lock_release>:
  80468c:	f800283a 	ret

00804690 <__sinit_lock_acquire>:
  804690:	f800283a 	ret

00804694 <__sinit_lock_release>:
  804694:	f800283a 	ret

00804698 <__fp_lock_all>:
  804698:	00802074 	movhi	r2,129
  80469c:	108b1c04 	addi	r2,r2,11376
  8046a0:	11000017 	ldw	r4,0(r2)
  8046a4:	01402034 	movhi	r5,128
  8046a8:	2950ca04 	addi	r5,r5,17192
  8046ac:	0804adc1 	jmpi	804adc <_fwalk>

008046b0 <__fp_unlock_all>:
  8046b0:	00802074 	movhi	r2,129
  8046b4:	108b1c04 	addi	r2,r2,11376
  8046b8:	11000017 	ldw	r4,0(r2)
  8046bc:	01402034 	movhi	r5,128
  8046c0:	2950cc04 	addi	r5,r5,17200
  8046c4:	0804adc1 	jmpi	804adc <_fwalk>

008046c8 <_malloc_trim_r>:
  8046c8:	defffb04 	addi	sp,sp,-20
  8046cc:	dcc00315 	stw	r19,12(sp)
  8046d0:	04c02074 	movhi	r19,129
  8046d4:	dc800215 	stw	r18,8(sp)
  8046d8:	dc400115 	stw	r17,4(sp)
  8046dc:	dc000015 	stw	r16,0(sp)
  8046e0:	dfc00415 	stw	ra,16(sp)
  8046e4:	2821883a 	mov	r16,r5
  8046e8:	9cc50604 	addi	r19,r19,5144
  8046ec:	2025883a 	mov	r18,r4
  8046f0:	080ce440 	call	80ce44 <__malloc_lock>
  8046f4:	98800217 	ldw	r2,8(r19)
  8046f8:	14400117 	ldw	r17,4(r2)
  8046fc:	00bfff04 	movi	r2,-4
  804700:	88a2703a 	and	r17,r17,r2
  804704:	8c21c83a 	sub	r16,r17,r16
  804708:	8403fbc4 	addi	r16,r16,4079
  80470c:	8020d33a 	srli	r16,r16,12
  804710:	0083ffc4 	movi	r2,4095
  804714:	843fffc4 	addi	r16,r16,-1
  804718:	8020933a 	slli	r16,r16,12
  80471c:	1400060e 	bge	r2,r16,804738 <_malloc_trim_r+0x70>
  804720:	9009883a 	mov	r4,r18
  804724:	000b883a 	mov	r5,zero
  804728:	08069fc0 	call	8069fc <_sbrk_r>
  80472c:	98c00217 	ldw	r3,8(r19)
  804730:	1c47883a 	add	r3,r3,r17
  804734:	10c00a26 	beq	r2,r3,804760 <_malloc_trim_r+0x98>
  804738:	9009883a 	mov	r4,r18
  80473c:	080ce640 	call	80ce64 <__malloc_unlock>
  804740:	0005883a 	mov	r2,zero
  804744:	dfc00417 	ldw	ra,16(sp)
  804748:	dcc00317 	ldw	r19,12(sp)
  80474c:	dc800217 	ldw	r18,8(sp)
  804750:	dc400117 	ldw	r17,4(sp)
  804754:	dc000017 	ldw	r16,0(sp)
  804758:	dec00504 	addi	sp,sp,20
  80475c:	f800283a 	ret
  804760:	9009883a 	mov	r4,r18
  804764:	040bc83a 	sub	r5,zero,r16
  804768:	08069fc0 	call	8069fc <_sbrk_r>
  80476c:	00ffffc4 	movi	r3,-1
  804770:	10c00d26 	beq	r2,r3,8047a8 <_malloc_trim_r+0xe0>
  804774:	00c02074 	movhi	r3,129
  804778:	18d28a04 	addi	r3,r3,18984
  80477c:	18800017 	ldw	r2,0(r3)
  804780:	99000217 	ldw	r4,8(r19)
  804784:	8c23c83a 	sub	r17,r17,r16
  804788:	8c400054 	ori	r17,r17,1
  80478c:	1421c83a 	sub	r16,r2,r16
  804790:	24400115 	stw	r17,4(r4)
  804794:	9009883a 	mov	r4,r18
  804798:	1c000015 	stw	r16,0(r3)
  80479c:	080ce640 	call	80ce64 <__malloc_unlock>
  8047a0:	00800044 	movi	r2,1
  8047a4:	003fe706 	br	804744 <__alt_data_end+0xff804744>
  8047a8:	9009883a 	mov	r4,r18
  8047ac:	000b883a 	mov	r5,zero
  8047b0:	08069fc0 	call	8069fc <_sbrk_r>
  8047b4:	99000217 	ldw	r4,8(r19)
  8047b8:	014003c4 	movi	r5,15
  8047bc:	1107c83a 	sub	r3,r2,r4
  8047c0:	28ffdd0e 	bge	r5,r3,804738 <__alt_data_end+0xff804738>
  8047c4:	01402074 	movhi	r5,129
  8047c8:	294b1e04 	addi	r5,r5,11384
  8047cc:	29400017 	ldw	r5,0(r5)
  8047d0:	18c00054 	ori	r3,r3,1
  8047d4:	20c00115 	stw	r3,4(r4)
  8047d8:	00c02074 	movhi	r3,129
  8047dc:	1145c83a 	sub	r2,r2,r5
  8047e0:	18d28a04 	addi	r3,r3,18984
  8047e4:	18800015 	stw	r2,0(r3)
  8047e8:	003fd306 	br	804738 <__alt_data_end+0xff804738>

008047ec <_free_r>:
  8047ec:	28004c26 	beq	r5,zero,804920 <_free_r+0x134>
  8047f0:	defffd04 	addi	sp,sp,-12
  8047f4:	dc400115 	stw	r17,4(sp)
  8047f8:	dc000015 	stw	r16,0(sp)
  8047fc:	2023883a 	mov	r17,r4
  804800:	2821883a 	mov	r16,r5
  804804:	dfc00215 	stw	ra,8(sp)
  804808:	080ce440 	call	80ce44 <__malloc_lock>
  80480c:	813fff17 	ldw	r4,-4(r16)
  804810:	00bfff84 	movi	r2,-2
  804814:	02402074 	movhi	r9,129
  804818:	81bffe04 	addi	r6,r16,-8
  80481c:	2084703a 	and	r2,r4,r2
  804820:	4a450604 	addi	r9,r9,5144
  804824:	308b883a 	add	r5,r6,r2
  804828:	2a000117 	ldw	r8,4(r5)
  80482c:	49c00217 	ldw	r7,8(r9)
  804830:	00ffff04 	movi	r3,-4
  804834:	40c6703a 	and	r3,r8,r3
  804838:	39405326 	beq	r7,r5,804988 <_free_r+0x19c>
  80483c:	28c00115 	stw	r3,4(r5)
  804840:	2100004c 	andi	r4,r4,1
  804844:	2000091e 	bne	r4,zero,80486c <_free_r+0x80>
  804848:	81fffe17 	ldw	r7,-8(r16)
  80484c:	4a000204 	addi	r8,r9,8
  804850:	31cdc83a 	sub	r6,r6,r7
  804854:	31000217 	ldw	r4,8(r6)
  804858:	11c5883a 	add	r2,r2,r7
  80485c:	22006126 	beq	r4,r8,8049e4 <_free_r+0x1f8>
  804860:	31c00317 	ldw	r7,12(r6)
  804864:	21c00315 	stw	r7,12(r4)
  804868:	39000215 	stw	r4,8(r7)
  80486c:	28c9883a 	add	r4,r5,r3
  804870:	21c00117 	ldw	r7,4(r4)
  804874:	39c0004c 	andi	r7,r7,1
  804878:	38000d1e 	bne	r7,zero,8048b0 <_free_r+0xc4>
  80487c:	29000217 	ldw	r4,8(r5)
  804880:	10c5883a 	add	r2,r2,r3
  804884:	00c02074 	movhi	r3,129
  804888:	18c50804 	addi	r3,r3,5152
  80488c:	20c07526 	beq	r4,r3,804a64 <_free_r+0x278>
  804890:	29c00317 	ldw	r7,12(r5)
  804894:	11400054 	ori	r5,r2,1
  804898:	3087883a 	add	r3,r6,r2
  80489c:	21c00315 	stw	r7,12(r4)
  8048a0:	39000215 	stw	r4,8(r7)
  8048a4:	31400115 	stw	r5,4(r6)
  8048a8:	18800015 	stw	r2,0(r3)
  8048ac:	00000406 	br	8048c0 <_free_r+0xd4>
  8048b0:	10c00054 	ori	r3,r2,1
  8048b4:	30c00115 	stw	r3,4(r6)
  8048b8:	3087883a 	add	r3,r6,r2
  8048bc:	18800015 	stw	r2,0(r3)
  8048c0:	00c07fc4 	movi	r3,511
  8048c4:	18801736 	bltu	r3,r2,804924 <_free_r+0x138>
  8048c8:	1004d0fa 	srli	r2,r2,3
  8048cc:	01400044 	movi	r5,1
  8048d0:	49000117 	ldw	r4,4(r9)
  8048d4:	1087883a 	add	r3,r2,r2
  8048d8:	18c7883a 	add	r3,r3,r3
  8048dc:	1005d0ba 	srai	r2,r2,2
  8048e0:	18c7883a 	add	r3,r3,r3
  8048e4:	1a47883a 	add	r3,r3,r9
  8048e8:	19c00217 	ldw	r7,8(r3)
  8048ec:	2884983a 	sll	r2,r5,r2
  8048f0:	30c00315 	stw	r3,12(r6)
  8048f4:	31c00215 	stw	r7,8(r6)
  8048f8:	1104b03a 	or	r2,r2,r4
  8048fc:	19800215 	stw	r6,8(r3)
  804900:	48800115 	stw	r2,4(r9)
  804904:	39800315 	stw	r6,12(r7)
  804908:	8809883a 	mov	r4,r17
  80490c:	dfc00217 	ldw	ra,8(sp)
  804910:	dc400117 	ldw	r17,4(sp)
  804914:	dc000017 	ldw	r16,0(sp)
  804918:	dec00304 	addi	sp,sp,12
  80491c:	080ce641 	jmpi	80ce64 <__malloc_unlock>
  804920:	f800283a 	ret
  804924:	1006d27a 	srli	r3,r2,9
  804928:	01000104 	movi	r4,4
  80492c:	20c04036 	bltu	r4,r3,804a30 <_free_r+0x244>
  804930:	1006d1ba 	srli	r3,r2,6
  804934:	19400e04 	addi	r5,r3,56
  804938:	2947883a 	add	r3,r5,r5
  80493c:	18c7883a 	add	r3,r3,r3
  804940:	18c7883a 	add	r3,r3,r3
  804944:	1a49883a 	add	r4,r3,r9
  804948:	20c00217 	ldw	r3,8(r4)
  80494c:	01c02074 	movhi	r7,129
  804950:	39c50604 	addi	r7,r7,5144
  804954:	19003b26 	beq	r3,r4,804a44 <_free_r+0x258>
  804958:	01ffff04 	movi	r7,-4
  80495c:	19400117 	ldw	r5,4(r3)
  804960:	29ca703a 	and	r5,r5,r7
  804964:	1140022e 	bgeu	r2,r5,804970 <_free_r+0x184>
  804968:	18c00217 	ldw	r3,8(r3)
  80496c:	20fffb1e 	bne	r4,r3,80495c <__alt_data_end+0xff80495c>
  804970:	18800317 	ldw	r2,12(r3)
  804974:	30800315 	stw	r2,12(r6)
  804978:	30c00215 	stw	r3,8(r6)
  80497c:	11800215 	stw	r6,8(r2)
  804980:	19800315 	stw	r6,12(r3)
  804984:	003fe006 	br	804908 <__alt_data_end+0xff804908>
  804988:	2100004c 	andi	r4,r4,1
  80498c:	1885883a 	add	r2,r3,r2
  804990:	2000071e 	bne	r4,zero,8049b0 <_free_r+0x1c4>
  804994:	817ffe17 	ldw	r5,-8(r16)
  804998:	314dc83a 	sub	r6,r6,r5
  80499c:	30c00317 	ldw	r3,12(r6)
  8049a0:	31000217 	ldw	r4,8(r6)
  8049a4:	1145883a 	add	r2,r2,r5
  8049a8:	20c00315 	stw	r3,12(r4)
  8049ac:	19000215 	stw	r4,8(r3)
  8049b0:	10c00054 	ori	r3,r2,1
  8049b4:	30c00115 	stw	r3,4(r6)
  8049b8:	00c02074 	movhi	r3,129
  8049bc:	18cb1f04 	addi	r3,r3,11388
  8049c0:	18c00017 	ldw	r3,0(r3)
  8049c4:	49800215 	stw	r6,8(r9)
  8049c8:	10ffcf36 	bltu	r2,r3,804908 <__alt_data_end+0xff804908>
  8049cc:	00802074 	movhi	r2,129
  8049d0:	10928104 	addi	r2,r2,18948
  8049d4:	11400017 	ldw	r5,0(r2)
  8049d8:	8809883a 	mov	r4,r17
  8049dc:	08046c80 	call	8046c8 <_malloc_trim_r>
  8049e0:	003fc906 	br	804908 <__alt_data_end+0xff804908>
  8049e4:	28c9883a 	add	r4,r5,r3
  8049e8:	21000117 	ldw	r4,4(r4)
  8049ec:	2100004c 	andi	r4,r4,1
  8049f0:	20000a1e 	bne	r4,zero,804a1c <_free_r+0x230>
  8049f4:	29000317 	ldw	r4,12(r5)
  8049f8:	29400217 	ldw	r5,8(r5)
  8049fc:	10c5883a 	add	r2,r2,r3
  804a00:	10c00054 	ori	r3,r2,1
  804a04:	29000315 	stw	r4,12(r5)
  804a08:	21400215 	stw	r5,8(r4)
  804a0c:	30c00115 	stw	r3,4(r6)
  804a10:	308d883a 	add	r6,r6,r2
  804a14:	30800015 	stw	r2,0(r6)
  804a18:	003fbb06 	br	804908 <__alt_data_end+0xff804908>
  804a1c:	10c00054 	ori	r3,r2,1
  804a20:	30c00115 	stw	r3,4(r6)
  804a24:	308d883a 	add	r6,r6,r2
  804a28:	30800015 	stw	r2,0(r6)
  804a2c:	003fb606 	br	804908 <__alt_data_end+0xff804908>
  804a30:	01000504 	movi	r4,20
  804a34:	20c01436 	bltu	r4,r3,804a88 <_free_r+0x29c>
  804a38:	194016c4 	addi	r5,r3,91
  804a3c:	2947883a 	add	r3,r5,r5
  804a40:	003fbe06 	br	80493c <__alt_data_end+0xff80493c>
  804a44:	280bd0ba 	srai	r5,r5,2
  804a48:	00800044 	movi	r2,1
  804a4c:	39000117 	ldw	r4,4(r7)
  804a50:	114a983a 	sll	r5,r2,r5
  804a54:	1805883a 	mov	r2,r3
  804a58:	2908b03a 	or	r4,r5,r4
  804a5c:	39000115 	stw	r4,4(r7)
  804a60:	003fc406 	br	804974 <__alt_data_end+0xff804974>
  804a64:	49800515 	stw	r6,20(r9)
  804a68:	49800415 	stw	r6,16(r9)
  804a6c:	10c00054 	ori	r3,r2,1
  804a70:	31000315 	stw	r4,12(r6)
  804a74:	31000215 	stw	r4,8(r6)
  804a78:	30c00115 	stw	r3,4(r6)
  804a7c:	308d883a 	add	r6,r6,r2
  804a80:	30800015 	stw	r2,0(r6)
  804a84:	003fa006 	br	804908 <__alt_data_end+0xff804908>
  804a88:	01001504 	movi	r4,84
  804a8c:	20c00436 	bltu	r4,r3,804aa0 <_free_r+0x2b4>
  804a90:	1006d33a 	srli	r3,r2,12
  804a94:	19401b84 	addi	r5,r3,110
  804a98:	2947883a 	add	r3,r5,r5
  804a9c:	003fa706 	br	80493c <__alt_data_end+0xff80493c>
  804aa0:	01005504 	movi	r4,340
  804aa4:	20c00436 	bltu	r4,r3,804ab8 <_free_r+0x2cc>
  804aa8:	1006d3fa 	srli	r3,r2,15
  804aac:	19401dc4 	addi	r5,r3,119
  804ab0:	2947883a 	add	r3,r5,r5
  804ab4:	003fa106 	br	80493c <__alt_data_end+0xff80493c>
  804ab8:	01015504 	movi	r4,1364
  804abc:	20c00436 	bltu	r4,r3,804ad0 <_free_r+0x2e4>
  804ac0:	1006d4ba 	srli	r3,r2,18
  804ac4:	19401f04 	addi	r5,r3,124
  804ac8:	2947883a 	add	r3,r5,r5
  804acc:	003f9b06 	br	80493c <__alt_data_end+0xff80493c>
  804ad0:	00c03f04 	movi	r3,252
  804ad4:	01401f84 	movi	r5,126
  804ad8:	003f9806 	br	80493c <__alt_data_end+0xff80493c>

00804adc <_fwalk>:
  804adc:	defff704 	addi	sp,sp,-36
  804ae0:	dd000415 	stw	r20,16(sp)
  804ae4:	dfc00815 	stw	ra,32(sp)
  804ae8:	ddc00715 	stw	r23,28(sp)
  804aec:	dd800615 	stw	r22,24(sp)
  804af0:	dd400515 	stw	r21,20(sp)
  804af4:	dcc00315 	stw	r19,12(sp)
  804af8:	dc800215 	stw	r18,8(sp)
  804afc:	dc400115 	stw	r17,4(sp)
  804b00:	dc000015 	stw	r16,0(sp)
  804b04:	2500b804 	addi	r20,r4,736
  804b08:	a0002326 	beq	r20,zero,804b98 <_fwalk+0xbc>
  804b0c:	282b883a 	mov	r21,r5
  804b10:	002f883a 	mov	r23,zero
  804b14:	05800044 	movi	r22,1
  804b18:	04ffffc4 	movi	r19,-1
  804b1c:	a4400117 	ldw	r17,4(r20)
  804b20:	a4800217 	ldw	r18,8(r20)
  804b24:	8c7fffc4 	addi	r17,r17,-1
  804b28:	88000d16 	blt	r17,zero,804b60 <_fwalk+0x84>
  804b2c:	94000304 	addi	r16,r18,12
  804b30:	94800384 	addi	r18,r18,14
  804b34:	80c0000b 	ldhu	r3,0(r16)
  804b38:	8c7fffc4 	addi	r17,r17,-1
  804b3c:	813ffd04 	addi	r4,r16,-12
  804b40:	b0c0042e 	bgeu	r22,r3,804b54 <_fwalk+0x78>
  804b44:	90c0000f 	ldh	r3,0(r18)
  804b48:	1cc00226 	beq	r3,r19,804b54 <_fwalk+0x78>
  804b4c:	a83ee83a 	callr	r21
  804b50:	b8aeb03a 	or	r23,r23,r2
  804b54:	84001a04 	addi	r16,r16,104
  804b58:	94801a04 	addi	r18,r18,104
  804b5c:	8cfff51e 	bne	r17,r19,804b34 <__alt_data_end+0xff804b34>
  804b60:	a5000017 	ldw	r20,0(r20)
  804b64:	a03fed1e 	bne	r20,zero,804b1c <__alt_data_end+0xff804b1c>
  804b68:	b805883a 	mov	r2,r23
  804b6c:	dfc00817 	ldw	ra,32(sp)
  804b70:	ddc00717 	ldw	r23,28(sp)
  804b74:	dd800617 	ldw	r22,24(sp)
  804b78:	dd400517 	ldw	r21,20(sp)
  804b7c:	dd000417 	ldw	r20,16(sp)
  804b80:	dcc00317 	ldw	r19,12(sp)
  804b84:	dc800217 	ldw	r18,8(sp)
  804b88:	dc400117 	ldw	r17,4(sp)
  804b8c:	dc000017 	ldw	r16,0(sp)
  804b90:	dec00904 	addi	sp,sp,36
  804b94:	f800283a 	ret
  804b98:	002f883a 	mov	r23,zero
  804b9c:	003ff206 	br	804b68 <__alt_data_end+0xff804b68>

00804ba0 <_fwalk_reent>:
  804ba0:	defff704 	addi	sp,sp,-36
  804ba4:	dd400515 	stw	r21,20(sp)
  804ba8:	dfc00815 	stw	ra,32(sp)
  804bac:	ddc00715 	stw	r23,28(sp)
  804bb0:	dd800615 	stw	r22,24(sp)
  804bb4:	dd000415 	stw	r20,16(sp)
  804bb8:	dcc00315 	stw	r19,12(sp)
  804bbc:	dc800215 	stw	r18,8(sp)
  804bc0:	dc400115 	stw	r17,4(sp)
  804bc4:	dc000015 	stw	r16,0(sp)
  804bc8:	2540b804 	addi	r21,r4,736
  804bcc:	a8002326 	beq	r21,zero,804c5c <_fwalk_reent+0xbc>
  804bd0:	2829883a 	mov	r20,r5
  804bd4:	202d883a 	mov	r22,r4
  804bd8:	002f883a 	mov	r23,zero
  804bdc:	04c00044 	movi	r19,1
  804be0:	04bfffc4 	movi	r18,-1
  804be4:	ac400117 	ldw	r17,4(r21)
  804be8:	ac000217 	ldw	r16,8(r21)
  804bec:	8c7fffc4 	addi	r17,r17,-1
  804bf0:	88000c16 	blt	r17,zero,804c24 <_fwalk_reent+0x84>
  804bf4:	84000304 	addi	r16,r16,12
  804bf8:	80c0000b 	ldhu	r3,0(r16)
  804bfc:	8c7fffc4 	addi	r17,r17,-1
  804c00:	817ffd04 	addi	r5,r16,-12
  804c04:	98c0052e 	bgeu	r19,r3,804c1c <_fwalk_reent+0x7c>
  804c08:	80c0008f 	ldh	r3,2(r16)
  804c0c:	b009883a 	mov	r4,r22
  804c10:	1c800226 	beq	r3,r18,804c1c <_fwalk_reent+0x7c>
  804c14:	a03ee83a 	callr	r20
  804c18:	b8aeb03a 	or	r23,r23,r2
  804c1c:	84001a04 	addi	r16,r16,104
  804c20:	8cbff51e 	bne	r17,r18,804bf8 <__alt_data_end+0xff804bf8>
  804c24:	ad400017 	ldw	r21,0(r21)
  804c28:	a83fee1e 	bne	r21,zero,804be4 <__alt_data_end+0xff804be4>
  804c2c:	b805883a 	mov	r2,r23
  804c30:	dfc00817 	ldw	ra,32(sp)
  804c34:	ddc00717 	ldw	r23,28(sp)
  804c38:	dd800617 	ldw	r22,24(sp)
  804c3c:	dd400517 	ldw	r21,20(sp)
  804c40:	dd000417 	ldw	r20,16(sp)
  804c44:	dcc00317 	ldw	r19,12(sp)
  804c48:	dc800217 	ldw	r18,8(sp)
  804c4c:	dc400117 	ldw	r17,4(sp)
  804c50:	dc000017 	ldw	r16,0(sp)
  804c54:	dec00904 	addi	sp,sp,36
  804c58:	f800283a 	ret
  804c5c:	002f883a 	mov	r23,zero
  804c60:	003ff206 	br	804c2c <__alt_data_end+0xff804c2c>

00804c64 <_setlocale_r>:
  804c64:	30001b26 	beq	r6,zero,804cd4 <_setlocale_r+0x70>
  804c68:	01402074 	movhi	r5,129
  804c6c:	defffe04 	addi	sp,sp,-8
  804c70:	29428c04 	addi	r5,r5,2608
  804c74:	3009883a 	mov	r4,r6
  804c78:	dc000015 	stw	r16,0(sp)
  804c7c:	dfc00115 	stw	ra,4(sp)
  804c80:	3021883a 	mov	r16,r6
  804c84:	0806b8c0 	call	806b8c <strcmp>
  804c88:	1000061e 	bne	r2,zero,804ca4 <_setlocale_r+0x40>
  804c8c:	00802074 	movhi	r2,129
  804c90:	10828b04 	addi	r2,r2,2604
  804c94:	dfc00117 	ldw	ra,4(sp)
  804c98:	dc000017 	ldw	r16,0(sp)
  804c9c:	dec00204 	addi	sp,sp,8
  804ca0:	f800283a 	ret
  804ca4:	01402074 	movhi	r5,129
  804ca8:	29428b04 	addi	r5,r5,2604
  804cac:	8009883a 	mov	r4,r16
  804cb0:	0806b8c0 	call	806b8c <strcmp>
  804cb4:	103ff526 	beq	r2,zero,804c8c <__alt_data_end+0xff804c8c>
  804cb8:	01402074 	movhi	r5,129
  804cbc:	29427604 	addi	r5,r5,2520
  804cc0:	8009883a 	mov	r4,r16
  804cc4:	0806b8c0 	call	806b8c <strcmp>
  804cc8:	103ff026 	beq	r2,zero,804c8c <__alt_data_end+0xff804c8c>
  804ccc:	0005883a 	mov	r2,zero
  804cd0:	003ff006 	br	804c94 <__alt_data_end+0xff804c94>
  804cd4:	00802074 	movhi	r2,129
  804cd8:	10828b04 	addi	r2,r2,2604
  804cdc:	f800283a 	ret

00804ce0 <__locale_charset>:
  804ce0:	00802074 	movhi	r2,129
  804ce4:	1084f004 	addi	r2,r2,5056
  804ce8:	f800283a 	ret

00804cec <__locale_mb_cur_max>:
  804cec:	00802074 	movhi	r2,129
  804cf0:	108b1d04 	addi	r2,r2,11380
  804cf4:	10800017 	ldw	r2,0(r2)
  804cf8:	f800283a 	ret

00804cfc <__locale_msgcharset>:
  804cfc:	00802074 	movhi	r2,129
  804d00:	1084e804 	addi	r2,r2,5024
  804d04:	f800283a 	ret

00804d08 <__locale_cjk_lang>:
  804d08:	0005883a 	mov	r2,zero
  804d0c:	f800283a 	ret

00804d10 <_localeconv_r>:
  804d10:	00802074 	movhi	r2,129
  804d14:	1084f804 	addi	r2,r2,5088
  804d18:	f800283a 	ret

00804d1c <setlocale>:
  804d1c:	00c02074 	movhi	r3,129
  804d20:	18cb1c04 	addi	r3,r3,11376
  804d24:	2005883a 	mov	r2,r4
  804d28:	19000017 	ldw	r4,0(r3)
  804d2c:	280d883a 	mov	r6,r5
  804d30:	100b883a 	mov	r5,r2
  804d34:	0804c641 	jmpi	804c64 <_setlocale_r>

00804d38 <localeconv>:
  804d38:	00802074 	movhi	r2,129
  804d3c:	1084f804 	addi	r2,r2,5088
  804d40:	f800283a 	ret

00804d44 <__smakebuf_r>:
  804d44:	2880030b 	ldhu	r2,12(r5)
  804d48:	10c0008c 	andi	r3,r2,2
  804d4c:	1800401e 	bne	r3,zero,804e50 <__smakebuf_r+0x10c>
  804d50:	deffec04 	addi	sp,sp,-80
  804d54:	dc000f15 	stw	r16,60(sp)
  804d58:	2821883a 	mov	r16,r5
  804d5c:	2940038f 	ldh	r5,14(r5)
  804d60:	dc401015 	stw	r17,64(sp)
  804d64:	dfc01315 	stw	ra,76(sp)
  804d68:	dcc01215 	stw	r19,72(sp)
  804d6c:	dc801115 	stw	r18,68(sp)
  804d70:	2023883a 	mov	r17,r4
  804d74:	28001b16 	blt	r5,zero,804de4 <__smakebuf_r+0xa0>
  804d78:	d80d883a 	mov	r6,sp
  804d7c:	08085e40 	call	8085e4 <_fstat_r>
  804d80:	10001716 	blt	r2,zero,804de0 <__smakebuf_r+0x9c>
  804d84:	d8800117 	ldw	r2,4(sp)
  804d88:	00e00014 	movui	r3,32768
  804d8c:	10bc000c 	andi	r2,r2,61440
  804d90:	10c03726 	beq	r2,r3,804e70 <__smakebuf_r+0x12c>
  804d94:	80c0030b 	ldhu	r3,12(r16)
  804d98:	18c20014 	ori	r3,r3,2048
  804d9c:	80c0030d 	sth	r3,12(r16)
  804da0:	00c80004 	movi	r3,8192
  804da4:	10c03c1e 	bne	r2,r3,804e98 <__smakebuf_r+0x154>
  804da8:	8140038f 	ldh	r5,14(r16)
  804dac:	8809883a 	mov	r4,r17
  804db0:	0808afc0 	call	808afc <_isatty_r>
  804db4:	10004e26 	beq	r2,zero,804ef0 <__smakebuf_r+0x1ac>
  804db8:	8080030b 	ldhu	r2,12(r16)
  804dbc:	04c00044 	movi	r19,1
  804dc0:	80c010c4 	addi	r3,r16,67
  804dc4:	14c4b03a 	or	r2,r2,r19
  804dc8:	8080030d 	sth	r2,12(r16)
  804dcc:	80c00015 	stw	r3,0(r16)
  804dd0:	80c00415 	stw	r3,16(r16)
  804dd4:	84c00515 	stw	r19,20(r16)
  804dd8:	04810004 	movi	r18,1024
  804ddc:	00000706 	br	804dfc <__smakebuf_r+0xb8>
  804de0:	8080030b 	ldhu	r2,12(r16)
  804de4:	10c0200c 	andi	r3,r2,128
  804de8:	18001f1e 	bne	r3,zero,804e68 <__smakebuf_r+0x124>
  804dec:	04810004 	movi	r18,1024
  804df0:	10820014 	ori	r2,r2,2048
  804df4:	8080030d 	sth	r2,12(r16)
  804df8:	0027883a 	mov	r19,zero
  804dfc:	8809883a 	mov	r4,r17
  804e00:	900b883a 	mov	r5,r18
  804e04:	0804efc0 	call	804efc <_malloc_r>
  804e08:	10002e26 	beq	r2,zero,804ec4 <__smakebuf_r+0x180>
  804e0c:	80c0030b 	ldhu	r3,12(r16)
  804e10:	01002034 	movhi	r4,128
  804e14:	2110ce04 	addi	r4,r4,17208
  804e18:	89000f15 	stw	r4,60(r17)
  804e1c:	18c02014 	ori	r3,r3,128
  804e20:	80c0030d 	sth	r3,12(r16)
  804e24:	80800015 	stw	r2,0(r16)
  804e28:	80800415 	stw	r2,16(r16)
  804e2c:	84800515 	stw	r18,20(r16)
  804e30:	98001c1e 	bne	r19,zero,804ea4 <__smakebuf_r+0x160>
  804e34:	dfc01317 	ldw	ra,76(sp)
  804e38:	dcc01217 	ldw	r19,72(sp)
  804e3c:	dc801117 	ldw	r18,68(sp)
  804e40:	dc401017 	ldw	r17,64(sp)
  804e44:	dc000f17 	ldw	r16,60(sp)
  804e48:	dec01404 	addi	sp,sp,80
  804e4c:	f800283a 	ret
  804e50:	288010c4 	addi	r2,r5,67
  804e54:	28800015 	stw	r2,0(r5)
  804e58:	28800415 	stw	r2,16(r5)
  804e5c:	00800044 	movi	r2,1
  804e60:	28800515 	stw	r2,20(r5)
  804e64:	f800283a 	ret
  804e68:	04801004 	movi	r18,64
  804e6c:	003fe006 	br	804df0 <__alt_data_end+0xff804df0>
  804e70:	81000a17 	ldw	r4,40(r16)
  804e74:	00c02034 	movhi	r3,128
  804e78:	18daca04 	addi	r3,r3,27432
  804e7c:	20ffc51e 	bne	r4,r3,804d94 <__alt_data_end+0xff804d94>
  804e80:	80c0030b 	ldhu	r3,12(r16)
  804e84:	01010004 	movi	r4,1024
  804e88:	81001315 	stw	r4,76(r16)
  804e8c:	1906b03a 	or	r3,r3,r4
  804e90:	80c0030d 	sth	r3,12(r16)
  804e94:	003fc206 	br	804da0 <__alt_data_end+0xff804da0>
  804e98:	0027883a 	mov	r19,zero
  804e9c:	04810004 	movi	r18,1024
  804ea0:	003fd606 	br	804dfc <__alt_data_end+0xff804dfc>
  804ea4:	8140038f 	ldh	r5,14(r16)
  804ea8:	8809883a 	mov	r4,r17
  804eac:	0808afc0 	call	808afc <_isatty_r>
  804eb0:	103fe026 	beq	r2,zero,804e34 <__alt_data_end+0xff804e34>
  804eb4:	8080030b 	ldhu	r2,12(r16)
  804eb8:	10800054 	ori	r2,r2,1
  804ebc:	8080030d 	sth	r2,12(r16)
  804ec0:	003fdc06 	br	804e34 <__alt_data_end+0xff804e34>
  804ec4:	8080030b 	ldhu	r2,12(r16)
  804ec8:	10c0800c 	andi	r3,r2,512
  804ecc:	183fd91e 	bne	r3,zero,804e34 <__alt_data_end+0xff804e34>
  804ed0:	10800094 	ori	r2,r2,2
  804ed4:	80c010c4 	addi	r3,r16,67
  804ed8:	8080030d 	sth	r2,12(r16)
  804edc:	00800044 	movi	r2,1
  804ee0:	80c00015 	stw	r3,0(r16)
  804ee4:	80c00415 	stw	r3,16(r16)
  804ee8:	80800515 	stw	r2,20(r16)
  804eec:	003fd106 	br	804e34 <__alt_data_end+0xff804e34>
  804ef0:	04c00044 	movi	r19,1
  804ef4:	04810004 	movi	r18,1024
  804ef8:	003fc006 	br	804dfc <__alt_data_end+0xff804dfc>

00804efc <_malloc_r>:
  804efc:	defff504 	addi	sp,sp,-44
  804f00:	dc800315 	stw	r18,12(sp)
  804f04:	dfc00a15 	stw	ra,40(sp)
  804f08:	df000915 	stw	fp,36(sp)
  804f0c:	ddc00815 	stw	r23,32(sp)
  804f10:	dd800715 	stw	r22,28(sp)
  804f14:	dd400615 	stw	r21,24(sp)
  804f18:	dd000515 	stw	r20,20(sp)
  804f1c:	dcc00415 	stw	r19,16(sp)
  804f20:	dc400215 	stw	r17,8(sp)
  804f24:	dc000115 	stw	r16,4(sp)
  804f28:	288002c4 	addi	r2,r5,11
  804f2c:	00c00584 	movi	r3,22
  804f30:	2025883a 	mov	r18,r4
  804f34:	18802a2e 	bgeu	r3,r2,804fe0 <_malloc_r+0xe4>
  804f38:	047ffe04 	movi	r17,-8
  804f3c:	1462703a 	and	r17,r2,r17
  804f40:	88009e16 	blt	r17,zero,8051bc <_malloc_r+0x2c0>
  804f44:	89409d36 	bltu	r17,r5,8051bc <_malloc_r+0x2c0>
  804f48:	080ce440 	call	80ce44 <__malloc_lock>
  804f4c:	00807dc4 	movi	r2,503
  804f50:	14402736 	bltu	r2,r17,804ff0 <_malloc_r+0xf4>
  804f54:	8806d0fa 	srli	r3,r17,3
  804f58:	04c02074 	movhi	r19,129
  804f5c:	9cc50604 	addi	r19,r19,5144
  804f60:	18c5883a 	add	r2,r3,r3
  804f64:	1085883a 	add	r2,r2,r2
  804f68:	1085883a 	add	r2,r2,r2
  804f6c:	9885883a 	add	r2,r19,r2
  804f70:	14000317 	ldw	r16,12(r2)
  804f74:	80814a26 	beq	r16,r2,8054a0 <_malloc_r+0x5a4>
  804f78:	80c00117 	ldw	r3,4(r16)
  804f7c:	81000317 	ldw	r4,12(r16)
  804f80:	00bfff04 	movi	r2,-4
  804f84:	1884703a 	and	r2,r3,r2
  804f88:	81400217 	ldw	r5,8(r16)
  804f8c:	8085883a 	add	r2,r16,r2
  804f90:	10c00117 	ldw	r3,4(r2)
  804f94:	29000315 	stw	r4,12(r5)
  804f98:	21400215 	stw	r5,8(r4)
  804f9c:	18c00054 	ori	r3,r3,1
  804fa0:	10c00115 	stw	r3,4(r2)
  804fa4:	9009883a 	mov	r4,r18
  804fa8:	080ce640 	call	80ce64 <__malloc_unlock>
  804fac:	80800204 	addi	r2,r16,8
  804fb0:	dfc00a17 	ldw	ra,40(sp)
  804fb4:	df000917 	ldw	fp,36(sp)
  804fb8:	ddc00817 	ldw	r23,32(sp)
  804fbc:	dd800717 	ldw	r22,28(sp)
  804fc0:	dd400617 	ldw	r21,24(sp)
  804fc4:	dd000517 	ldw	r20,20(sp)
  804fc8:	dcc00417 	ldw	r19,16(sp)
  804fcc:	dc800317 	ldw	r18,12(sp)
  804fd0:	dc400217 	ldw	r17,8(sp)
  804fd4:	dc000117 	ldw	r16,4(sp)
  804fd8:	dec00b04 	addi	sp,sp,44
  804fdc:	f800283a 	ret
  804fe0:	04400404 	movi	r17,16
  804fe4:	89407536 	bltu	r17,r5,8051bc <_malloc_r+0x2c0>
  804fe8:	080ce440 	call	80ce44 <__malloc_lock>
  804fec:	003fd906 	br	804f54 <__alt_data_end+0xff804f54>
  804ff0:	8806d27a 	srli	r3,r17,9
  804ff4:	18007526 	beq	r3,zero,8051cc <_malloc_r+0x2d0>
  804ff8:	00800104 	movi	r2,4
  804ffc:	10c0ef36 	bltu	r2,r3,8053bc <_malloc_r+0x4c0>
  805000:	8806d1ba 	srli	r3,r17,6
  805004:	19c00e04 	addi	r7,r3,56
  805008:	39cb883a 	add	r5,r7,r7
  80500c:	04c02074 	movhi	r19,129
  805010:	294b883a 	add	r5,r5,r5
  805014:	9cc50604 	addi	r19,r19,5144
  805018:	294b883a 	add	r5,r5,r5
  80501c:	994b883a 	add	r5,r19,r5
  805020:	2c000317 	ldw	r16,12(r5)
  805024:	2c000e26 	beq	r5,r16,805060 <_malloc_r+0x164>
  805028:	80800117 	ldw	r2,4(r16)
  80502c:	01bfff04 	movi	r6,-4
  805030:	010003c4 	movi	r4,15
  805034:	1184703a 	and	r2,r2,r6
  805038:	1447c83a 	sub	r3,r2,r17
  80503c:	20c00716 	blt	r4,r3,80505c <_malloc_r+0x160>
  805040:	1800650e 	bge	r3,zero,8051d8 <_malloc_r+0x2dc>
  805044:	84000317 	ldw	r16,12(r16)
  805048:	2c000526 	beq	r5,r16,805060 <_malloc_r+0x164>
  80504c:	80800117 	ldw	r2,4(r16)
  805050:	1184703a 	and	r2,r2,r6
  805054:	1447c83a 	sub	r3,r2,r17
  805058:	20fff90e 	bge	r4,r3,805040 <__alt_data_end+0xff805040>
  80505c:	39ffffc4 	addi	r7,r7,-1
  805060:	38c00044 	addi	r3,r7,1
  805064:	01802074 	movhi	r6,129
  805068:	9c000417 	ldw	r16,16(r19)
  80506c:	31850604 	addi	r6,r6,5144
  805070:	32400204 	addi	r9,r6,8
  805074:	82410326 	beq	r16,r9,805484 <_malloc_r+0x588>
  805078:	81000117 	ldw	r4,4(r16)
  80507c:	00bfff04 	movi	r2,-4
  805080:	208e703a 	and	r7,r4,r2
  805084:	3c45c83a 	sub	r2,r7,r17
  805088:	010003c4 	movi	r4,15
  80508c:	2080ee16 	blt	r4,r2,805448 <_malloc_r+0x54c>
  805090:	32400515 	stw	r9,20(r6)
  805094:	32400415 	stw	r9,16(r6)
  805098:	1000510e 	bge	r2,zero,8051e0 <_malloc_r+0x2e4>
  80509c:	00807fc4 	movi	r2,511
  8050a0:	11c0ce36 	bltu	r2,r7,8053dc <_malloc_r+0x4e0>
  8050a4:	3808d0fa 	srli	r4,r7,3
  8050a8:	01c00044 	movi	r7,1
  8050ac:	30800117 	ldw	r2,4(r6)
  8050b0:	210b883a 	add	r5,r4,r4
  8050b4:	294b883a 	add	r5,r5,r5
  8050b8:	2009d0ba 	srai	r4,r4,2
  8050bc:	294b883a 	add	r5,r5,r5
  8050c0:	298b883a 	add	r5,r5,r6
  8050c4:	2a000217 	ldw	r8,8(r5)
  8050c8:	3908983a 	sll	r4,r7,r4
  8050cc:	81400315 	stw	r5,12(r16)
  8050d0:	82000215 	stw	r8,8(r16)
  8050d4:	2088b03a 	or	r4,r4,r2
  8050d8:	2c000215 	stw	r16,8(r5)
  8050dc:	31000115 	stw	r4,4(r6)
  8050e0:	44000315 	stw	r16,12(r8)
  8050e4:	1805d0ba 	srai	r2,r3,2
  8050e8:	01400044 	movi	r5,1
  8050ec:	288a983a 	sll	r5,r5,r2
  8050f0:	21404336 	bltu	r4,r5,805200 <_malloc_r+0x304>
  8050f4:	2144703a 	and	r2,r4,r5
  8050f8:	10000a1e 	bne	r2,zero,805124 <_malloc_r+0x228>
  8050fc:	00bfff04 	movi	r2,-4
  805100:	294b883a 	add	r5,r5,r5
  805104:	1886703a 	and	r3,r3,r2
  805108:	2144703a 	and	r2,r4,r5
  80510c:	18c00104 	addi	r3,r3,4
  805110:	1000041e 	bne	r2,zero,805124 <_malloc_r+0x228>
  805114:	294b883a 	add	r5,r5,r5
  805118:	2144703a 	and	r2,r4,r5
  80511c:	18c00104 	addi	r3,r3,4
  805120:	103ffc26 	beq	r2,zero,805114 <__alt_data_end+0xff805114>
  805124:	023fff04 	movi	r8,-4
  805128:	01c003c4 	movi	r7,15
  80512c:	18c5883a 	add	r2,r3,r3
  805130:	1085883a 	add	r2,r2,r2
  805134:	1085883a 	add	r2,r2,r2
  805138:	9895883a 	add	r10,r19,r2
  80513c:	52c00304 	addi	r11,r10,12
  805140:	1819883a 	mov	r12,r3
  805144:	5c000017 	ldw	r16,0(r11)
  805148:	59bffd04 	addi	r6,r11,-12
  80514c:	8180041e 	bne	r16,r6,805160 <_malloc_r+0x264>
  805150:	0000ce06 	br	80548c <_malloc_r+0x590>
  805154:	2000d70e 	bge	r4,zero,8054b4 <_malloc_r+0x5b8>
  805158:	84000317 	ldw	r16,12(r16)
  80515c:	8180cb26 	beq	r16,r6,80548c <_malloc_r+0x590>
  805160:	80800117 	ldw	r2,4(r16)
  805164:	1204703a 	and	r2,r2,r8
  805168:	1449c83a 	sub	r4,r2,r17
  80516c:	393ff90e 	bge	r7,r4,805154 <__alt_data_end+0xff805154>
  805170:	80800317 	ldw	r2,12(r16)
  805174:	80c00217 	ldw	r3,8(r16)
  805178:	89400054 	ori	r5,r17,1
  80517c:	81400115 	stw	r5,4(r16)
  805180:	18800315 	stw	r2,12(r3)
  805184:	10c00215 	stw	r3,8(r2)
  805188:	8463883a 	add	r17,r16,r17
  80518c:	9c400515 	stw	r17,20(r19)
  805190:	9c400415 	stw	r17,16(r19)
  805194:	20800054 	ori	r2,r4,1
  805198:	88800115 	stw	r2,4(r17)
  80519c:	8a400315 	stw	r9,12(r17)
  8051a0:	8a400215 	stw	r9,8(r17)
  8051a4:	8923883a 	add	r17,r17,r4
  8051a8:	89000015 	stw	r4,0(r17)
  8051ac:	9009883a 	mov	r4,r18
  8051b0:	080ce640 	call	80ce64 <__malloc_unlock>
  8051b4:	80800204 	addi	r2,r16,8
  8051b8:	003f7d06 	br	804fb0 <__alt_data_end+0xff804fb0>
  8051bc:	00800304 	movi	r2,12
  8051c0:	90800015 	stw	r2,0(r18)
  8051c4:	0005883a 	mov	r2,zero
  8051c8:	003f7906 	br	804fb0 <__alt_data_end+0xff804fb0>
  8051cc:	01401f84 	movi	r5,126
  8051d0:	01c00fc4 	movi	r7,63
  8051d4:	003f8d06 	br	80500c <__alt_data_end+0xff80500c>
  8051d8:	81000317 	ldw	r4,12(r16)
  8051dc:	003f6a06 	br	804f88 <__alt_data_end+0xff804f88>
  8051e0:	81c5883a 	add	r2,r16,r7
  8051e4:	10c00117 	ldw	r3,4(r2)
  8051e8:	9009883a 	mov	r4,r18
  8051ec:	18c00054 	ori	r3,r3,1
  8051f0:	10c00115 	stw	r3,4(r2)
  8051f4:	080ce640 	call	80ce64 <__malloc_unlock>
  8051f8:	80800204 	addi	r2,r16,8
  8051fc:	003f6c06 	br	804fb0 <__alt_data_end+0xff804fb0>
  805200:	9c000217 	ldw	r16,8(r19)
  805204:	00bfff04 	movi	r2,-4
  805208:	85800117 	ldw	r22,4(r16)
  80520c:	b0ac703a 	and	r22,r22,r2
  805210:	b4400336 	bltu	r22,r17,805220 <_malloc_r+0x324>
  805214:	b445c83a 	sub	r2,r22,r17
  805218:	00c003c4 	movi	r3,15
  80521c:	18805d16 	blt	r3,r2,805394 <_malloc_r+0x498>
  805220:	05c02074 	movhi	r23,129
  805224:	00802074 	movhi	r2,129
  805228:	bdcb1e04 	addi	r23,r23,11384
  80522c:	10928104 	addi	r2,r2,18948
  805230:	15400017 	ldw	r21,0(r2)
  805234:	b9000017 	ldw	r4,0(r23)
  805238:	00ffffc4 	movi	r3,-1
  80523c:	858d883a 	add	r6,r16,r22
  805240:	8d6b883a 	add	r21,r17,r21
  805244:	20c0e426 	beq	r4,r3,8055d8 <_malloc_r+0x6dc>
  805248:	ad4403c4 	addi	r21,r21,4111
  80524c:	00fc0004 	movi	r3,-4096
  805250:	a8ea703a 	and	r21,r21,r3
  805254:	9009883a 	mov	r4,r18
  805258:	a80b883a 	mov	r5,r21
  80525c:	d9800015 	stw	r6,0(sp)
  805260:	08069fc0 	call	8069fc <_sbrk_r>
  805264:	00ffffc4 	movi	r3,-1
  805268:	1029883a 	mov	r20,r2
  80526c:	d9800017 	ldw	r6,0(sp)
  805270:	10c0a426 	beq	r2,r3,805504 <_malloc_r+0x608>
  805274:	1180a236 	bltu	r2,r6,805500 <_malloc_r+0x604>
  805278:	07002074 	movhi	fp,129
  80527c:	e7128a04 	addi	fp,fp,18984
  805280:	e0c00017 	ldw	r3,0(fp)
  805284:	a8c7883a 	add	r3,r21,r3
  805288:	e0c00015 	stw	r3,0(fp)
  80528c:	3500da26 	beq	r6,r20,8055f8 <_malloc_r+0x6fc>
  805290:	b9000017 	ldw	r4,0(r23)
  805294:	00bfffc4 	movi	r2,-1
  805298:	2080e426 	beq	r4,r2,80562c <_malloc_r+0x730>
  80529c:	a185c83a 	sub	r2,r20,r6
  8052a0:	1885883a 	add	r2,r3,r2
  8052a4:	e0800015 	stw	r2,0(fp)
  8052a8:	a0c001cc 	andi	r3,r20,7
  8052ac:	1800b526 	beq	r3,zero,805584 <_malloc_r+0x688>
  8052b0:	a0e9c83a 	sub	r20,r20,r3
  8052b4:	00840204 	movi	r2,4104
  8052b8:	a5000204 	addi	r20,r20,8
  8052bc:	10c7c83a 	sub	r3,r2,r3
  8052c0:	a545883a 	add	r2,r20,r21
  8052c4:	1083ffcc 	andi	r2,r2,4095
  8052c8:	18abc83a 	sub	r21,r3,r2
  8052cc:	9009883a 	mov	r4,r18
  8052d0:	a80b883a 	mov	r5,r21
  8052d4:	08069fc0 	call	8069fc <_sbrk_r>
  8052d8:	00ffffc4 	movi	r3,-1
  8052dc:	10c0d026 	beq	r2,r3,805620 <_malloc_r+0x724>
  8052e0:	1507c83a 	sub	r3,r2,r20
  8052e4:	a8c7883a 	add	r3,r21,r3
  8052e8:	18c00054 	ori	r3,r3,1
  8052ec:	e0800017 	ldw	r2,0(fp)
  8052f0:	9d000215 	stw	r20,8(r19)
  8052f4:	a0c00115 	stw	r3,4(r20)
  8052f8:	a887883a 	add	r3,r21,r2
  8052fc:	e0c00015 	stw	r3,0(fp)
  805300:	84c00e26 	beq	r16,r19,80533c <_malloc_r+0x440>
  805304:	018003c4 	movi	r6,15
  805308:	3580a02e 	bgeu	r6,r22,80558c <_malloc_r+0x690>
  80530c:	81400117 	ldw	r5,4(r16)
  805310:	013ffe04 	movi	r4,-8
  805314:	b0bffd04 	addi	r2,r22,-12
  805318:	1104703a 	and	r2,r2,r4
  80531c:	2900004c 	andi	r4,r5,1
  805320:	1108b03a 	or	r4,r2,r4
  805324:	81000115 	stw	r4,4(r16)
  805328:	01400144 	movi	r5,5
  80532c:	8089883a 	add	r4,r16,r2
  805330:	21400115 	stw	r5,4(r4)
  805334:	21400215 	stw	r5,8(r4)
  805338:	3080c036 	bltu	r6,r2,80563c <_malloc_r+0x740>
  80533c:	00802074 	movhi	r2,129
  805340:	10928004 	addi	r2,r2,18944
  805344:	11000017 	ldw	r4,0(r2)
  805348:	20c0012e 	bgeu	r4,r3,805350 <_malloc_r+0x454>
  80534c:	10c00015 	stw	r3,0(r2)
  805350:	00802074 	movhi	r2,129
  805354:	10927f04 	addi	r2,r2,18940
  805358:	11000017 	ldw	r4,0(r2)
  80535c:	9c000217 	ldw	r16,8(r19)
  805360:	20c0012e 	bgeu	r4,r3,805368 <_malloc_r+0x46c>
  805364:	10c00015 	stw	r3,0(r2)
  805368:	80c00117 	ldw	r3,4(r16)
  80536c:	00bfff04 	movi	r2,-4
  805370:	1886703a 	and	r3,r3,r2
  805374:	1c45c83a 	sub	r2,r3,r17
  805378:	1c400236 	bltu	r3,r17,805384 <_malloc_r+0x488>
  80537c:	00c003c4 	movi	r3,15
  805380:	18800416 	blt	r3,r2,805394 <_malloc_r+0x498>
  805384:	9009883a 	mov	r4,r18
  805388:	080ce640 	call	80ce64 <__malloc_unlock>
  80538c:	0005883a 	mov	r2,zero
  805390:	003f0706 	br	804fb0 <__alt_data_end+0xff804fb0>
  805394:	88c00054 	ori	r3,r17,1
  805398:	80c00115 	stw	r3,4(r16)
  80539c:	8463883a 	add	r17,r16,r17
  8053a0:	10800054 	ori	r2,r2,1
  8053a4:	9c400215 	stw	r17,8(r19)
  8053a8:	88800115 	stw	r2,4(r17)
  8053ac:	9009883a 	mov	r4,r18
  8053b0:	080ce640 	call	80ce64 <__malloc_unlock>
  8053b4:	80800204 	addi	r2,r16,8
  8053b8:	003efd06 	br	804fb0 <__alt_data_end+0xff804fb0>
  8053bc:	00800504 	movi	r2,20
  8053c0:	10c0482e 	bgeu	r2,r3,8054e4 <_malloc_r+0x5e8>
  8053c4:	00801504 	movi	r2,84
  8053c8:	10c06836 	bltu	r2,r3,80556c <_malloc_r+0x670>
  8053cc:	8806d33a 	srli	r3,r17,12
  8053d0:	19c01b84 	addi	r7,r3,110
  8053d4:	39cb883a 	add	r5,r7,r7
  8053d8:	003f0c06 	br	80500c <__alt_data_end+0xff80500c>
  8053dc:	3804d27a 	srli	r2,r7,9
  8053e0:	01000104 	movi	r4,4
  8053e4:	2080422e 	bgeu	r4,r2,8054f0 <_malloc_r+0x5f4>
  8053e8:	01000504 	movi	r4,20
  8053ec:	20807c36 	bltu	r4,r2,8055e0 <_malloc_r+0x6e4>
  8053f0:	110016c4 	addi	r4,r2,91
  8053f4:	210b883a 	add	r5,r4,r4
  8053f8:	294b883a 	add	r5,r5,r5
  8053fc:	294b883a 	add	r5,r5,r5
  805400:	994b883a 	add	r5,r19,r5
  805404:	28800217 	ldw	r2,8(r5)
  805408:	02002074 	movhi	r8,129
  80540c:	42050604 	addi	r8,r8,5144
  805410:	11406326 	beq	r2,r5,8055a0 <_malloc_r+0x6a4>
  805414:	01bfff04 	movi	r6,-4
  805418:	11000117 	ldw	r4,4(r2)
  80541c:	2188703a 	and	r4,r4,r6
  805420:	3900022e 	bgeu	r7,r4,80542c <_malloc_r+0x530>
  805424:	10800217 	ldw	r2,8(r2)
  805428:	28bffb1e 	bne	r5,r2,805418 <__alt_data_end+0xff805418>
  80542c:	11800317 	ldw	r6,12(r2)
  805430:	99000117 	ldw	r4,4(r19)
  805434:	81800315 	stw	r6,12(r16)
  805438:	80800215 	stw	r2,8(r16)
  80543c:	34000215 	stw	r16,8(r6)
  805440:	14000315 	stw	r16,12(r2)
  805444:	003f2706 	br	8050e4 <__alt_data_end+0xff8050e4>
  805448:	88c00054 	ori	r3,r17,1
  80544c:	80c00115 	stw	r3,4(r16)
  805450:	8463883a 	add	r17,r16,r17
  805454:	34400515 	stw	r17,20(r6)
  805458:	34400415 	stw	r17,16(r6)
  80545c:	10c00054 	ori	r3,r2,1
  805460:	8a400315 	stw	r9,12(r17)
  805464:	8a400215 	stw	r9,8(r17)
  805468:	88c00115 	stw	r3,4(r17)
  80546c:	88a3883a 	add	r17,r17,r2
  805470:	88800015 	stw	r2,0(r17)
  805474:	9009883a 	mov	r4,r18
  805478:	080ce640 	call	80ce64 <__malloc_unlock>
  80547c:	80800204 	addi	r2,r16,8
  805480:	003ecb06 	br	804fb0 <__alt_data_end+0xff804fb0>
  805484:	31000117 	ldw	r4,4(r6)
  805488:	003f1606 	br	8050e4 <__alt_data_end+0xff8050e4>
  80548c:	63000044 	addi	r12,r12,1
  805490:	608000cc 	andi	r2,r12,3
  805494:	5ac00204 	addi	r11,r11,8
  805498:	103f2a1e 	bne	r2,zero,805144 <__alt_data_end+0xff805144>
  80549c:	00002106 	br	805524 <_malloc_r+0x628>
  8054a0:	80800204 	addi	r2,r16,8
  8054a4:	84000517 	ldw	r16,20(r16)
  8054a8:	143eb31e 	bne	r2,r16,804f78 <__alt_data_end+0xff804f78>
  8054ac:	18c00084 	addi	r3,r3,2
  8054b0:	003eec06 	br	805064 <__alt_data_end+0xff805064>
  8054b4:	8085883a 	add	r2,r16,r2
  8054b8:	10c00117 	ldw	r3,4(r2)
  8054bc:	81000317 	ldw	r4,12(r16)
  8054c0:	81400217 	ldw	r5,8(r16)
  8054c4:	18c00054 	ori	r3,r3,1
  8054c8:	10c00115 	stw	r3,4(r2)
  8054cc:	29000315 	stw	r4,12(r5)
  8054d0:	21400215 	stw	r5,8(r4)
  8054d4:	9009883a 	mov	r4,r18
  8054d8:	080ce640 	call	80ce64 <__malloc_unlock>
  8054dc:	80800204 	addi	r2,r16,8
  8054e0:	003eb306 	br	804fb0 <__alt_data_end+0xff804fb0>
  8054e4:	19c016c4 	addi	r7,r3,91
  8054e8:	39cb883a 	add	r5,r7,r7
  8054ec:	003ec706 	br	80500c <__alt_data_end+0xff80500c>
  8054f0:	3804d1ba 	srli	r2,r7,6
  8054f4:	11000e04 	addi	r4,r2,56
  8054f8:	210b883a 	add	r5,r4,r4
  8054fc:	003fbe06 	br	8053f8 <__alt_data_end+0xff8053f8>
  805500:	84ff5d26 	beq	r16,r19,805278 <__alt_data_end+0xff805278>
  805504:	9c000217 	ldw	r16,8(r19)
  805508:	00bfff04 	movi	r2,-4
  80550c:	80c00117 	ldw	r3,4(r16)
  805510:	1886703a 	and	r3,r3,r2
  805514:	003f9706 	br	805374 <__alt_data_end+0xff805374>
  805518:	52800017 	ldw	r10,0(r10)
  80551c:	18ffffc4 	addi	r3,r3,-1
  805520:	50805c1e 	bne	r10,r2,805694 <_malloc_r+0x798>
  805524:	190000cc 	andi	r4,r3,3
  805528:	50bffe04 	addi	r2,r10,-8
  80552c:	203ffa1e 	bne	r4,zero,805518 <__alt_data_end+0xff805518>
  805530:	98800117 	ldw	r2,4(r19)
  805534:	0146303a 	nor	r3,zero,r5
  805538:	1884703a 	and	r2,r3,r2
  80553c:	98800115 	stw	r2,4(r19)
  805540:	294b883a 	add	r5,r5,r5
  805544:	117f2e36 	bltu	r2,r5,805200 <__alt_data_end+0xff805200>
  805548:	283f2d26 	beq	r5,zero,805200 <__alt_data_end+0xff805200>
  80554c:	1146703a 	and	r3,r2,r5
  805550:	1800521e 	bne	r3,zero,80569c <_malloc_r+0x7a0>
  805554:	6007883a 	mov	r3,r12
  805558:	294b883a 	add	r5,r5,r5
  80555c:	1148703a 	and	r4,r2,r5
  805560:	18c00104 	addi	r3,r3,4
  805564:	203ffc26 	beq	r4,zero,805558 <__alt_data_end+0xff805558>
  805568:	003ef006 	br	80512c <__alt_data_end+0xff80512c>
  80556c:	00805504 	movi	r2,340
  805570:	10c01336 	bltu	r2,r3,8055c0 <_malloc_r+0x6c4>
  805574:	8806d3fa 	srli	r3,r17,15
  805578:	19c01dc4 	addi	r7,r3,119
  80557c:	39cb883a 	add	r5,r7,r7
  805580:	003ea206 	br	80500c <__alt_data_end+0xff80500c>
  805584:	00c40004 	movi	r3,4096
  805588:	003f4d06 	br	8052c0 <__alt_data_end+0xff8052c0>
  80558c:	00800044 	movi	r2,1
  805590:	a0800115 	stw	r2,4(r20)
  805594:	a021883a 	mov	r16,r20
  805598:	0007883a 	mov	r3,zero
  80559c:	003f7506 	br	805374 <__alt_data_end+0xff805374>
  8055a0:	200bd0ba 	srai	r5,r4,2
  8055a4:	01800044 	movi	r6,1
  8055a8:	41000117 	ldw	r4,4(r8)
  8055ac:	314a983a 	sll	r5,r6,r5
  8055b0:	100d883a 	mov	r6,r2
  8055b4:	2908b03a 	or	r4,r5,r4
  8055b8:	41000115 	stw	r4,4(r8)
  8055bc:	003f9d06 	br	805434 <__alt_data_end+0xff805434>
  8055c0:	00815504 	movi	r2,1364
  8055c4:	10c01336 	bltu	r2,r3,805614 <_malloc_r+0x718>
  8055c8:	8806d4ba 	srli	r3,r17,18
  8055cc:	19c01f04 	addi	r7,r3,124
  8055d0:	39cb883a 	add	r5,r7,r7
  8055d4:	003e8d06 	br	80500c <__alt_data_end+0xff80500c>
  8055d8:	ad400404 	addi	r21,r21,16
  8055dc:	003f1d06 	br	805254 <__alt_data_end+0xff805254>
  8055e0:	01001504 	movi	r4,84
  8055e4:	20801c36 	bltu	r4,r2,805658 <_malloc_r+0x75c>
  8055e8:	3804d33a 	srli	r2,r7,12
  8055ec:	11001b84 	addi	r4,r2,110
  8055f0:	210b883a 	add	r5,r4,r4
  8055f4:	003f8006 	br	8053f8 <__alt_data_end+0xff8053f8>
  8055f8:	3083ffcc 	andi	r2,r6,4095
  8055fc:	103f241e 	bne	r2,zero,805290 <__alt_data_end+0xff805290>
  805600:	99000217 	ldw	r4,8(r19)
  805604:	ad85883a 	add	r2,r21,r22
  805608:	10800054 	ori	r2,r2,1
  80560c:	20800115 	stw	r2,4(r4)
  805610:	003f4a06 	br	80533c <__alt_data_end+0xff80533c>
  805614:	01403f04 	movi	r5,252
  805618:	01c01f84 	movi	r7,126
  80561c:	003e7b06 	br	80500c <__alt_data_end+0xff80500c>
  805620:	00c00044 	movi	r3,1
  805624:	002b883a 	mov	r21,zero
  805628:	003f3006 	br	8052ec <__alt_data_end+0xff8052ec>
  80562c:	00802074 	movhi	r2,129
  805630:	108b1e04 	addi	r2,r2,11384
  805634:	15000015 	stw	r20,0(r2)
  805638:	003f1b06 	br	8052a8 <__alt_data_end+0xff8052a8>
  80563c:	9009883a 	mov	r4,r18
  805640:	81400204 	addi	r5,r16,8
  805644:	08047ec0 	call	8047ec <_free_r>
  805648:	00802074 	movhi	r2,129
  80564c:	10928a04 	addi	r2,r2,18984
  805650:	10c00017 	ldw	r3,0(r2)
  805654:	003f3906 	br	80533c <__alt_data_end+0xff80533c>
  805658:	01005504 	movi	r4,340
  80565c:	20800436 	bltu	r4,r2,805670 <_malloc_r+0x774>
  805660:	3804d3fa 	srli	r2,r7,15
